gplink-2.2.37 (Jan 22 2024)
Listing File Generated: 2025-7-22  17:58:04
 
 
Address  Value    Disassembly              Source
-------  -----    -----------              ------
                                           ;--------------------------------------------------------
                                           ; external declarations
                                           ;--------------------------------------------------------
                                           	extern	_led_init
                                           	extern	_led_all_off
                                           	extern	_led_status_clear
                                           	extern	_led_mode_alter
                                           	extern	_led_handle
                                           	extern	_set_led_mode_status
                                           	extern	__mullong
                                           	extern	__divulong
                                           	extern	__mulint
                                           	extern	__divuint
                                           	extern	_INDF0bits
                                           	extern	_INDF1bits
                                           	extern	_INDF2bits
                                           	extern	_HIBYTEbits
                                           	extern	_FSR0bits
                                           	extern	_FSR1bits
                                           	extern	_PCLbits
                                           	extern	_PFLAGbits
                                           	extern	_MCRbits
                                           	extern	_INDF3bits
                                           	extern	_INTEbits
                                           	extern	_INTFbits
                                           	extern	_DRVCRbits
                                           	extern	_P0KBCRbits
                                           	extern	_P1KBCRbits
                                           	extern	_P2KBCRbits
                                           	extern	_IOP0bits
                                           	extern	_OEP0bits
                                           	extern	_PUP0bits
                                           	extern	_PDP0bits
                                           	extern	_IOP1bits
                                           	extern	_OEP1bits
                                           	extern	_PUP1bits
                                           	extern	_PDP1bits
                                           	extern	_T0CRbits
                                           	extern	_T0CNTbits
                                           	extern	_T0LOADbits
                                           	extern	_T0DATAbits
                                           	extern	_T1CRbits
                                           	extern	_T1CNTbits
                                           	extern	_T1LOADbits
                                           	extern	_T1DATAbits
                                           	extern	_T2CRbits
                                           	extern	_T2CNTbits
                                           	extern	_T2LOADbits
                                           	extern	_T2DATAbits
                                           	extern	_T3CRbits
                                           	extern	_T3CNTbits
                                           	extern	_T3LOADbits
                                           	extern	_PWM0DRbits
                                           	extern	_PWM1DRbits
                                           	extern	_PWM2DRbits
                                           	extern	_PWMCR0bits
                                           	extern	_PWMCR1bits
                                           	extern	_OSCMRbits
                                           	extern	_LVDCRbits
                                           	extern	_ADCR0bits
                                           	extern	_ADCR1bits
                                           	extern	_ADCR2bits
                                           	extern	_OSADJCRbits
                                           	extern	_ADRHbits
                                           	extern	_ADRLbits
                                           	extern	_P0ADCRbits
                                           	extern	_P1ADCRbits
                                           	extern	_IOP2bits
                                           	extern	_OEP2bits
                                           	extern	_PUP2bits
                                           	extern	_PDP2bits
                                           	extern	_PMODbits
                                           	extern	_PWMCR3bits
                                           	extern	_PWMCR2bits
                                           	extern	_PFRCCRbits
                                           	extern	_PFRCCALbits
                                           	extern	_EECRbits
                                           	extern	_EEPRbits
                                           	extern	_EEARbits
                                           	extern	_EEDRHbits
                                           	extern	_EEDRLbits
                                           	extern	_DBGCRbits
                                           	extern	_DBGPRbits
                                           	extern	_HIRCCALbits
                                           	extern	_INDF0
                                           	extern	_INDF1
                                           	extern	_INDF2
                                           	extern	_HIBYTE
                                           	extern	_FSR0
                                           	extern	_FSR1
                                           	extern	_PCL
                                           	extern	_PFLAG
                                           	extern	_MCR
                                           	extern	_INDF3
                                           	extern	_INTE
                                           	extern	_INTF
                                           	extern	_DRVCR
                                           	extern	_P0KBCR
                                           	extern	_P1KBCR
                                           	extern	_P2KBCR
                                           	extern	_IOP0
                                           	extern	_OEP0
                                           	extern	_PUP0
                                           	extern	_PDP0
                                           	extern	_IOP1
                                           	extern	_OEP1
                                           	extern	_PUP1
                                           	extern	_PDP1
                                           	extern	_T0CR
                                           	extern	_T0CNT
                                           	extern	_T0LOAD
                                           	extern	_T0DATA
                                           	extern	_T1CR
                                           	extern	_T1CNT
                                           	extern	_T1LOAD
                                           	extern	_T1DATA
                                           	extern	_T2CR
                                           	extern	_T2CNT
                                           	extern	_T2LOAD
                                           	extern	_T2DATA
                                           	extern	_T3CR
                                           	extern	_T3CNT
                                           	extern	_T3LOAD
                                           	extern	_PWM0DR
                                           	extern	_PWM1DR
                                           	extern	_PWM2DR
                                           	extern	_PWMCR0
                                           	extern	_PWMCR1
                                           	extern	_OSCMR
                                           	extern	_LVDCR
                                           	extern	_ADCR0
                                           	extern	_ADCR1
                                           	extern	_ADCR2
                                           	extern	_OSADJCR
                                           	extern	_ADRH
                                           	extern	_ADRL
                                           	extern	_P0ADCR
                                           	extern	_P1ADCR
                                           	extern	_IOP2
                                           	extern	_OEP2
                                           	extern	_PUP2
                                           	extern	_PDP2
                                           	extern	_PMOD
                                           	extern	_PWMCR3
                                           	extern	_PWMCR2
                                           	extern	_PFRCCR
                                           	extern	_PFRCCAL
                                           	extern	_EECR
                                           	extern	_EEPR
                                           	extern	_EEAR
                                           	extern	_EEDRH
                                           	extern	_EEDRL
                                           	extern	_DBGCR
                                           	extern	_DBGPR
                                           	extern	_HIRCCAL
                                           	extern	__gptrget2
                                           ;--------------------------------------------------------
                                           ; global declarations
                                           ;--------------------------------------------------------
                                           	global	_light_handle
                                           	global	_light_init
                                           	global	_light_blink
                                           	global	_delay_ms
                                           	global	_CLR_RAM
                                           	global	_IO_Init
                                           	global	_timer0_pwm_set_low_feq
                                           	global	_timer0_pwm_set_high_feq
                                           	global	_timer0_pwm_disable
                                           	global	_timer1_config
                                           	global	_timer2_pwm_config
                                           	global	_timer2_pwm_set_feq
                                           	global	_adc_config
                                           	global	_adc_sel_ref_voltage
                                           	global	_adc_sel_pin
                                           	global	_adc_getval
                                           	global	_adc_update_bat_adc_val
                                           	global	_adc_update_charge_adc_val
                                           	global	_adc_update_current_adc_val
                                           	global	_sys_init
                                           	global	_charge_handle
                                           	global	_main
                                           	global	_int_isr
                                           	global	_abuf
                                           	global	_statusbuf
                                           	global	_flag1
                                           	global	_flag2
                                           	global	_flag3
                                           	global	_ir_data
                                           	global	_bat_adc_val
                                           	global	_charging_adc_val
                                           	global	_current_adc_val
                                           	global	_cur_charging_pwm_status
                                           	global	_cur_charge_phase
                                           	global	_cur_initial_discharge_gear
                                           	global	_cur_discharge_rate
                                           	global	_cur_led_mode
                                           	global	_cur_led_gear
                                           	global	_last_led_gear
                                           	global	_cur_led_gear_in_charging
                                           	global	_flag_led_setting_mode_exit_times_come
                                           	global	_led_setting_mode_exit_times_cnt
                                           	global	_led_struction_mode_exit_times_cnt
                                           	global	_light_adjust_time_cnt
                                           	global	_light_ctl_phase_in_rate_1
                                           	global	_cur_light_pwm_duty_val
                                           	global	_flag_is_light_adjust_time_come
                                           	global	_flag_is_light_pwm_duty_val_adjust_time_come
                                           	global	_flag_is_ctl_light_blink
                                           	global	_light_ctl_blink_times
                                           	global	_expect_light_pwm_duty_val
                                           	global	_light_auto_shutdown_time_cnt
                                           	global	_light_pwm_sub_table
                                           	global	_light_pwm_add_table
                                           	global	_light_pwm_duty_init_val_table
                                           
                                           	global STK06
                                           	global STK05
                                           	global STK04
                                           	global STK03
                                           	global STK02
                                           	global STK01
                                           	global STK00
                                           
                                           sharebank udata_ovr 0x0000
                                           STK06	res 1
                                           STK05	res 1
                                           STK04	res 1
                                           STK03	res 1
                                           STK02	res 1
                                           STK01	res 1
                                           STK00	res 1
                                           
                                           ;--------------------------------------------------------
                                           ; global definitions
                                           ;--------------------------------------------------------
                                           UD_MC32F7361_0	udata
                                           _abuf	res	1
                                           
                                           UD_MC32F7361_1	udata
                                           _statusbuf	res	1
                                           
                                           UD_MC32F7361_2	udata
                                           _flag1	res	1
                                           
                                           UD_MC32F7361_3	udata
                                           _flag2	res	1
                                           
                                           UD_MC32F7361_4	udata
                                           _flag3	res	1
                                           
                                           UD_MC32F7361_5	udata
                                           _bat_adc_val	res	2
                                           
                                           UD_MC32F7361_6	udata
                                           _charging_adc_val	res	2
                                           
                                           UD_MC32F7361_7	udata
                                           _current_adc_val	res	2
                                           
                                           UD_MC32F7361_8	udata
                                           _cur_charging_pwm_status	res	1
                                           
                                           UD_MC32F7361_9	udata
                                           _cur_charge_phase	res	1
                                           
                                           UD_MC32F7361_10	udata
                                           _cur_initial_discharge_gear	res	1
                                           
                                           UD_MC32F7361_11	udata
                                           _cur_discharge_rate	res	1
                                           
                                           UD_MC32F7361_12	udata
                                           _cur_led_mode	res	1
                                           
                                           UD_MC32F7361_13	udata
                                           _cur_led_gear	res	1
                                           
                                           UD_MC32F7361_14	udata
                                           _last_led_gear	res	1
                                           
                                           UD_MC32F7361_15	udata
                                           _cur_led_gear_in_charging	res	1
                                           
                                           ;--------------------------------------------------------
                                           ; absolute symbol definitions
                                           ;--------------------------------------------------------
                                           ;--------------------------------------------------------
                                           ; compiler-defined variables
                                           ;--------------------------------------------------------
                                           UDL_MC32F7361_0	udata
                                           r0x101E	res	1
                                           r0x101D	res	1
                                           r0x101F	res	1
                                           r0x1020	res	1
                                           r0x1021	res	1
                                           r0x1022	res	1
                                           r0x1023	res	1
                                           r0x1024	res	1
                                           r0x1025	res	1
                                           r0x1026	res	1
                                           r0x1027	res	1
                                           r0x1029	res	1
                                           r0x1028	res	1
                                           r0x102A	res	1
                                           r0x102B	res	1
                                           r0x102C	res	1
                                           r0x102D	res	1
                                           r0x102E	res	1
                                           r0x102F	res	1
                                           r0x1030	res	1
                                           r0x1031	res	1
                                           r0x1032	res	1
                                           r0x1033	res	1
                                           r0x1034	res	1
                                           r0x1035	res	1
                                           r0x1036	res	1
                                           r0x1037	res	1
                                           r0x1038	res	1
                                           r0x103F	res	1
                                           r0x1040	res	1
                                           r0x1041	res	1
                                           r0x1042	res	1
                                           r0x1039	res	1
                                           r0x103A	res	1
                                           r0x103B	res	1
                                           r0x103C	res	1
                                           r0x103E	res	1
                                           r0x103D	res	1
                                           r0x1043	res	1
                                           r0x1044	res	1
                                           _charge_handle_trickle_charge_cnt_131072_59	res	1
                                           _charge_handle_pwm_duty_131072_59	res	1
                                           _int_isr_ir_level_cnt_196608_127	res	2
                                           _int_isr___ir_data_196608_127	res	1
                                           _int_isr_cnt_196608_143	res	1
                                           ;--------------------------------------------------------
                                           ; initialized data
                                           ;--------------------------------------------------------
                                           
                                           ID_MC32F7361_0	idata
                                           _ir_data
                                           	db	0x00
                                           
                                           
                                           ID_MC32F7361_1	idata
                                           _flag_led_setting_mode_exit_times_come
                                           	db	0x00
                                           
                                           
                                           ID_MC32F7361_2	idata
                                           _led_setting_mode_exit_times_cnt
                                           	db	0x00, 0x00
                                           
                                           
                                           ID_MC32F7361_3	idata
                                           _led_struction_mode_exit_times_cnt
                                           	db	0x00, 0x00
                                           
                                           
                                           ID_MC32F7361_4	idata
                                           _light_adjust_time_cnt
                                           	db	0x00, 0x00, 0x00, 0x00
                                           
                                           
                                           ID_MC32F7361_5	idata
                                           _light_ctl_phase_in_rate_1
                                           	db	0x01
                                           
                                           
                                           ID_MC32F7361_6	idata
                                           _cur_light_pwm_duty_val
                                           	db	0x00, 0x00
                                           
                                           
                                           ID_MC32F7361_7	idata
                                           _flag_is_light_adjust_time_come
                                           	db	0x00
                                           
                                           
                                           ID_MC32F7361_8	idata
                                           _flag_is_light_pwm_duty_val_adjust_time_come
                                           	db	0x00
                                           
                                           
                                           ID_MC32F7361_9	idata
                                           _flag_is_ctl_light_blink
                                           	db	0x00
                                           
                                           
                                           ID_MC32F7361_10	idata
                                           _light_ctl_blink_times
                                           	db	0x00
                                           
                                           
                                           ID_MC32F7361_11	idata
                                           _expect_light_pwm_duty_val
                                           	db	0x00, 0x00
                                           
                                           
                                           ID_MC32F7361_12	idata
                                           _light_auto_shutdown_time_cnt
                                           	db	0x00, 0x00, 0x00, 0x00
                                           
                                           
                                           ID_MC32F7361_13	code
                                           _light_pwm_sub_table
0006c7   00d4     dw      0xd4             	dw 0xd4
0006c8   0000     nop                      	dw 0x00
0006c9   00bb     dw      0xbb             	dw 0xbb
0006ca   0000     nop                      	dw 0x00
0006cb   00a1     dw      0xa1             	dw 0xa1
0006cc   0000     nop                      	dw 0x00
0006cd   0088     dw      0x88             	dw 0x88
0006ce   0000     nop                      	dw 0x00
0006cf   006f     dw      0x6f             	dw 0x6f
0006d0   0000     nop                      	dw 0x00
0006d1   0056     dw      0x56             	dw 0x56
0006d2   0000     nop                      	dw 0x00
0006d3   003c     dw      0x3c             	dw 0x3c
0006d4   0000     nop                      	dw 0x00
0006d5   0023     dw      0x23             	dw 0x23
0006d6   0000     nop                      	dw 0x00
0006d7   000c     return                   	dw 0x0c
0006d8   0000     nop                      	dw 0x00
                                           
                                           
                                           ID_MC32F7361_14	code
                                           _light_pwm_add_table
0006d9   000c     return                   	dw 0x0c
0006da   0000     nop                      	dw 0x00
0006db   0025     dw      0x25             	dw 0x25
0006dc   0000     nop                      	dw 0x00
0006dd   003e     dw      0x3e             	dw 0x3e
0006de   0000     nop                      	dw 0x00
0006df   0058     dw      0x58             	dw 0x58
0006e0   0000     nop                      	dw 0x00
0006e1   0071     dw      0x71             	dw 0x71
0006e2   0000     nop                      	dw 0x00
0006e3   008a     dw      0x8a             	dw 0x8a
0006e4   0000     nop                      	dw 0x00
0006e5   00a6     dw      0xa6             	dw 0xa6
0006e6   0000     nop                      	dw 0x00
0006e7   00bd     dw      0xbd             	dw 0xbd
0006e8   0000     nop                      	dw 0x00
0006e9   00d4     dw      0xd4             	dw 0xd4
0006ea   0000     nop                      	dw 0x00
                                           
                                           
                                           ID_MC32F7361_15	code
                                           _light_pwm_duty_init_val_table
0006eb   00d4     dw      0xd4             	dw 0xd4
0006ec   0000     nop                      	dw 0x00
0006ed   00bc     dw      0xbc             	dw 0xbc
0006ee   0000     nop                      	dw 0x00
0006ef   00a3     dw      0xa3             	dw 0xa3
0006f0   0000     nop                      	dw 0x00
0006f1   0090     dw      0x90             	dw 0x90
0006f2   0000     nop                      	dw 0x00
0006f3   007e     dw      0x7e             	dw 0x7e
0006f4   0000     nop                      	dw 0x00
                                           
                                           
                                           ;@Allocation info for local variables in function 'delay_ms'
                                           ;@delay_ms led_init                  Allocated to registers ;size:2
                                           ;@delay_ms led_all_off               Allocated to registers ;size:2
                                           ;@delay_ms led_status_clear          Allocated to registers ;size:2
                                           ;@delay_ms led_mode_alter            Allocated to registers ;size:2
                                           ;@delay_ms led_handle                Allocated to registers ;size:2
                                           ;@delay_ms set_led_mode_status       Allocated to registers ;size:2
                                           ;@delay_ms light_init                Allocated to registers ;size:2
                                           ;@delay_ms light_blink               Allocated to registers ;size:2
                                           ;@delay_ms light_handle              Allocated to registers ;size:2
                                           ;@delay_ms INDF0bits                 Allocated to registers ;size:1
                                           ;@delay_ms INDF1bits                 Allocated to registers ;size:1
                                           ;@delay_ms INDF2bits                 Allocated to registers ;size:1
                                           ;@delay_ms HIBYTEbits                Allocated to registers ;size:1
                                           ;@delay_ms FSR0bits                  Allocated to registers ;size:1
                                           ;@delay_ms FSR1bits                  Allocated to registers ;size:1
                                           ;@delay_ms PCLbits                   Allocated to registers ;size:1
                                           ;@delay_ms PFLAGbits                 Allocated to registers ;size:1
                                           ;@delay_ms MCRbits                   Allocated to registers ;size:1
                                           ;@delay_ms INDF3bits                 Allocated to registers ;size:1
                                           ;@delay_ms INTEbits                  Allocated to registers ;size:1
                                           ;@delay_ms INTFbits                  Allocated to registers ;size:1
                                           ;@delay_ms DRVCRbits                 Allocated to registers ;size:1
                                           ;@delay_ms P0KBCRbits                Allocated to registers ;size:1
                                           ;@delay_ms P1KBCRbits                Allocated to registers ;size:1
                                           ;@delay_ms P2KBCRbits                Allocated to registers ;size:1
                                           ;@delay_ms IOP0bits                  Allocated to registers ;size:1
                                           ;@delay_ms OEP0bits                  Allocated to registers ;size:1
                                           ;@delay_ms PUP0bits                  Allocated to registers ;size:1
                                           ;@delay_ms PDP0bits                  Allocated to registers ;size:1
                                           ;@delay_ms IOP1bits                  Allocated to registers ;size:1
                                           ;@delay_ms OEP1bits                  Allocated to registers ;size:1
                                           ;@delay_ms PUP1bits                  Allocated to registers ;size:1
                                           ;@delay_ms PDP1bits                  Allocated to registers ;size:1
                                           ;@delay_ms T0CRbits                  Allocated to registers ;size:1
                                           ;@delay_ms T0CNTbits                 Allocated to registers ;size:1
                                           ;@delay_ms T0LOADbits                Allocated to registers ;size:1
                                           ;@delay_ms T0DATAbits                Allocated to registers ;size:1
                                           ;@delay_ms T1CRbits                  Allocated to registers ;size:1
                                           ;@delay_ms T1CNTbits                 Allocated to registers ;size:1
                                           ;@delay_ms T1LOADbits                Allocated to registers ;size:1
                                           ;@delay_ms T1DATAbits                Allocated to registers ;size:1
                                           ;@delay_ms T2CRbits                  Allocated to registers ;size:1
                                           ;@delay_ms T2CNTbits                 Allocated to registers ;size:1
                                           ;@delay_ms T2LOADbits                Allocated to registers ;size:1
                                           ;@delay_ms T2DATAbits                Allocated to registers ;size:1
                                           ;@delay_ms T3CRbits                  Allocated to registers ;size:1
                                           ;@delay_ms T3CNTbits                 Allocated to registers ;size:1
                                           ;@delay_ms T3LOADbits                Allocated to registers ;size:1
                                           ;@delay_ms PWM0DRbits                Allocated to registers ;size:1
                                           ;@delay_ms PWM1DRbits                Allocated to registers ;size:1
                                           ;@delay_ms PWM2DRbits                Allocated to registers ;size:1
                                           ;@delay_ms PWMCR0bits                Allocated to registers ;size:1
                                           ;@delay_ms PWMCR1bits                Allocated to registers ;size:1
                                           ;@delay_ms OSCMRbits                 Allocated to registers ;size:1
                                           ;@delay_ms LVDCRbits                 Allocated to registers ;size:1
                                           ;@delay_ms ADCR0bits                 Allocated to registers ;size:1
                                           ;@delay_ms ADCR1bits                 Allocated to registers ;size:1
                                           ;@delay_ms ADCR2bits                 Allocated to registers ;size:1
                                           ;@delay_ms OSADJCRbits               Allocated to registers ;size:1
                                           ;@delay_ms ADRHbits                  Allocated to registers ;size:1
                                           ;@delay_ms ADRLbits                  Allocated to registers ;size:1
                                           ;@delay_ms P0ADCRbits                Allocated to registers ;size:1
                                           ;@delay_ms P1ADCRbits                Allocated to registers ;size:1
                                           ;@delay_ms IOP2bits                  Allocated to registers ;size:1
                                           ;@delay_ms OEP2bits                  Allocated to registers ;size:1
                                           ;@delay_ms PUP2bits                  Allocated to registers ;size:1
                                           ;@delay_ms PDP2bits                  Allocated to registers ;size:1
                                           ;@delay_ms PMODbits                  Allocated to registers ;size:1
                                           ;@delay_ms PWMCR3bits                Allocated to registers ;size:1
                                           ;@delay_ms PWMCR2bits                Allocated to registers ;size:1
                                           ;@delay_ms PFRCCRbits                Allocated to registers ;size:1
                                           ;@delay_ms PFRCCALbits               Allocated to registers ;size:1
                                           ;@delay_ms EECRbits                  Allocated to registers ;size:1
                                           ;@delay_ms EEPRbits                  Allocated to registers ;size:1
                                           ;@delay_ms EEARbits                  Allocated to registers ;size:1
                                           ;@delay_ms EEDRHbits                 Allocated to registers ;size:1
                                           ;@delay_ms EEDRLbits                 Allocated to registers ;size:1
                                           ;@delay_ms DBGCRbits                 Allocated to registers ;size:1
                                           ;@delay_ms DBGPRbits                 Allocated to registers ;size:1
                                           ;@delay_ms HIRCCALbits               Allocated to registers ;size:1
                                           ;@delay_ms abuf                      Allocated to registers ;size:1
                                           ;@delay_ms statusbuf                 Allocated to registers ;size:1
                                           ;@delay_ms flag1                     Allocated to registers ;size:1
                                           ;@delay_ms flag2                     Allocated to registers ;size:1
                                           ;@delay_ms flag3                     Allocated to registers ;size:1
                                           ;@delay_ms xms                       Allocated to registers ;size:2
                                           ;@delay_ms i                         Allocated to registers r0x101F r0x1020 ;size:2
                                           ;@delay_ms INDF0                     Allocated to registers ;size:1
                                           ;@delay_ms INDF1                     Allocated to registers ;size:1
                                           ;@delay_ms INDF2                     Allocated to registers ;size:1
                                           ;@delay_ms HIBYTE                    Allocated to registers ;size:1
                                           ;@delay_ms FSR0                      Allocated to registers ;size:1
                                           ;@delay_ms FSR1                      Allocated to registers ;size:1
                                           ;@delay_ms PCL                       Allocated to registers ;size:1
                                           ;@delay_ms PFLAG                     Allocated to registers ;size:1
                                           ;@delay_ms MCR                       Allocated to registers ;size:1
                                           ;@delay_ms INDF3                     Allocated to registers ;size:1
                                           ;@delay_ms INTE                      Allocated to registers ;size:1
                                           ;@delay_ms INTF                      Allocated to registers ;size:1
                                           ;@delay_ms DRVCR                     Allocated to registers ;size:1
                                           ;@delay_ms P0KBCR                    Allocated to registers ;size:1
                                           ;@delay_ms P1KBCR                    Allocated to registers ;size:1
                                           ;@delay_ms P2KBCR                    Allocated to registers ;size:1
                                           ;@delay_ms IOP0                      Allocated to registers ;size:1
                                           ;@delay_ms OEP0                      Allocated to registers ;size:1
                                           ;@delay_ms PUP0                      Allocated to registers ;size:1
                                           ;@delay_ms PDP0                      Allocated to registers ;size:1
                                           ;@delay_ms IOP1                      Allocated to registers ;size:1
                                           ;@delay_ms OEP1                      Allocated to registers ;size:1
                                           ;@delay_ms PUP1                      Allocated to registers ;size:1
                                           ;@delay_ms PDP1                      Allocated to registers ;size:1
                                           ;@delay_ms T0CR                      Allocated to registers ;size:1
                                           ;@delay_ms T0CNT                     Allocated to registers ;size:1
                                           ;@delay_ms T0LOAD                    Allocated to registers ;size:1
                                           ;@delay_ms T0DATA                    Allocated to registers ;size:1
                                           ;@delay_ms T1CR                      Allocated to registers ;size:1
                                           ;@delay_ms T1CNT                     Allocated to registers ;size:1
                                           ;@delay_ms T1LOAD                    Allocated to registers ;size:1
                                           ;@delay_ms T1DATA                    Allocated to registers ;size:1
                                           ;@delay_ms T2CR                      Allocated to registers ;size:1
                                           ;@delay_ms T2CNT                     Allocated to registers ;size:1
                                           ;@delay_ms T2LOAD                    Allocated to registers ;size:1
                                           ;@delay_ms T2DATA                    Allocated to registers ;size:1
                                           ;@delay_ms T3CR                      Allocated to registers ;size:1
                                           ;@delay_ms T3CNT                     Allocated to registers ;size:1
                                           ;@delay_ms T3LOAD                    Allocated to registers ;size:1
                                           ;@delay_ms PWM0DR                    Allocated to registers ;size:1
                                           ;@delay_ms PWM1DR                    Allocated to registers ;size:1
                                           ;@delay_ms PWM2DR                    Allocated to registers ;size:1
                                           ;@delay_ms PWMCR0                    Allocated to registers ;size:1
                                           ;@delay_ms PWMCR1                    Allocated to registers ;size:1
                                           ;@delay_ms OSCMR                     Allocated to registers ;size:1
                                           ;@delay_ms LVDCR                     Allocated to registers ;size:1
                                           ;@delay_ms ADCR0                     Allocated to registers ;size:1
                                           ;@delay_ms ADCR1                     Allocated to registers ;size:1
                                           ;@delay_ms ADCR2                     Allocated to registers ;size:1
                                           ;@delay_ms OSADJCR                   Allocated to registers ;size:1
                                           ;@delay_ms ADRH                      Allocated to registers ;size:1
                                           ;@delay_ms ADRL                      Allocated to registers ;size:1
                                           ;@delay_ms P0ADCR                    Allocated to registers ;size:1
                                           ;@delay_ms P1ADCR                    Allocated to registers ;size:1
                                           ;@delay_ms IOP2                      Allocated to registers ;size:1
                                           ;@delay_ms OEP2                      Allocated to registers ;size:1
                                           ;@delay_ms PUP2                      Allocated to registers ;size:1
                                           ;@delay_ms PDP2                      Allocated to registers ;size:1
                                           ;@delay_ms PMOD                      Allocated to registers ;size:1
                                           ;@delay_ms PWMCR3                    Allocated to registers ;size:1
                                           ;@delay_ms PWMCR2                    Allocated to registers ;size:1
                                           ;@delay_ms PFRCCR                    Allocated to registers ;size:1
                                           ;@delay_ms PFRCCAL                   Allocated to registers ;size:1
                                           ;@delay_ms EECR                      Allocated to registers ;size:1
                                           ;@delay_ms EEPR                      Allocated to registers ;size:1
                                           ;@delay_ms EEAR                      Allocated to registers ;size:1
                                           ;@delay_ms EEDRH                     Allocated to registers ;size:1
                                           ;@delay_ms EEDRL                     Allocated to registers ;size:1
                                           ;@delay_ms DBGCR                     Allocated to registers ;size:1
                                           ;@delay_ms DBGPR                     Allocated to registers ;size:1
                                           ;@delay_ms HIRCCAL                   Allocated to registers ;size:1
                                           ;@end Allocation info for local variables in function 'delay_ms';
                                           ;@Allocation info for local variables in function 'CLR_RAM'
                                           ;@end Allocation info for local variables in function 'CLR_RAM';
                                           ;@Allocation info for local variables in function 'IO_Init'
                                           ;@end Allocation info for local variables in function 'IO_Init';
                                           ;@Allocation info for local variables in function 'timer0_pwm_set_low_feq'
                                           ;@end Allocation info for local variables in function 'timer0_pwm_set_low_feq';
                                           ;@Allocation info for local variables in function 'timer0_pwm_set_high_feq'
                                           ;@end Allocation info for local variables in function 'timer0_pwm_set_high_feq';
                                           ;@Allocation info for local variables in function 'timer0_pwm_disable'
                                           ;@end Allocation info for local variables in function 'timer0_pwm_disable';
                                           ;@Allocation info for local variables in function 'timer1_config'
                                           ;@end Allocation info for local variables in function 'timer1_config';
                                           ;@Allocation info for local variables in function 'timer2_pwm_config'
                                           ;@end Allocation info for local variables in function 'timer2_pwm_config';
                                           ;@Allocation info for local variables in function 'timer2_pwm_set_feq'
                                           ;@end Allocation info for local variables in function 'timer2_pwm_set_feq';
                                           ;@Allocation info for local variables in function 'adc_config'
                                           ;@end Allocation info for local variables in function 'adc_config';
                                           ;@Allocation info for local variables in function 'adc_sel_ref_voltage'
                                           ;@adc_sel_ref_voltage adc_ref_voltage           Allocated to registers r0x101D ;size:1
                                           ;@end Allocation info for local variables in function 'adc_sel_ref_voltage';
                                           ;@Allocation info for local variables in function 'adc_sel_pin'
                                           ;@adc_sel_pin adc_pin                   Allocated to registers r0x1023 ;size:1
                                           ;@end Allocation info for local variables in function 'adc_sel_pin';
                                           ;@Allocation info for local variables in function 'adc_getval'
                                           ;@adc_getval adc_val_tmp               Allocated to registers r0x1021 r0x1022 ;size:2
                                           ;@adc_getval adc_val_sum               Allocated to registers r0x1021 r0x1022 r0x1028 r0x102A ;size:4
                                           ;@adc_getval get_adcmax                Allocated to registers r0x1021 r0x1022 ;size:2
                                           ;@adc_getval get_adcmin                Allocated to registers r0x1023 r0x1024 ;size:2
                                           ;@adc_getval i                         Allocated to registers r0x1025 ;size:1
                                           ;@end Allocation info for local variables in function 'adc_getval';
                                           ;@Allocation info for local variables in function 'adc_update_bat_adc_val'
                                           ;@end Allocation info for local variables in function 'adc_update_bat_adc_val';
                                           ;@Allocation info for local variables in function 'adc_update_charge_adc_val'
                                           ;@adc_update_charge_adc_val adc_ref_voltage           Allocated to registers r0x102C ;size:1
                                           ;@end Allocation info for local variables in function 'adc_update_charge_adc_val';
                                           ;@Allocation info for local variables in function 'adc_update_current_adc_val'
                                           ;@end Allocation info for local variables in function 'adc_update_current_adc_val';
                                           ;@Allocation info for local variables in function 'sys_init'
                                           ;@end Allocation info for local variables in function 'sys_init';
                                           ;@Allocation info for local variables in function 'charge_handle'
                                           ;@charge_handle pwm_duty                  Allocated to registers ;size:1
                                           ;@charge_handle trickle_charge_cnt        Allocated to registers ;size:1
                                           ;@charge_handle current                   Allocated to registers r0x1033 r0x1034 ;size:2
                                           ;@charge_handle voltage_of_bat            Allocated to registers r0x102F r0x1030 ;size:2
                                           ;@charge_handle power                     Allocated to registers r0x102F r0x1030 r0x1031 r0x1032 ;size:4
                                           ;@charge_handle expected_power            Allocated to registers r0x102D r0x102E ;size:2
                                           ;@end Allocation info for local variables in function 'charge_handle';
                                           ;@Allocation info for local variables in function 'charge_handle'
                                           ;@charge_handle pwm_duty                  Allocated to registers ;size:1
                                           ;@charge_handle trickle_charge_cnt        Allocated to registers ;size:1
                                           ;@charge_handle current                   Allocated to registers r0x1033 r0x1034 ;size:2
                                           ;@charge_handle voltage_of_bat            Allocated to registers r0x102F r0x1030 ;size:2
                                           ;@charge_handle power                     Allocated to registers r0x102F r0x1030 r0x1031 r0x1032 ;size:4
                                           ;@charge_handle expected_power            Allocated to registers r0x102D r0x102E ;size:2
                                           ;@end Allocation info for local variables in function 'charge_handle';
                                           ;@Allocation info for local variables in function 'light_blink'
                                           ;@light_blink blink_cnt                 Allocated to registers ;size:1
                                           ;@end Allocation info for local variables in function 'light_blink';
                                           ;@Allocation info for local variables in function 'light_init'
                                           ;@end Allocation info for local variables in function 'light_init';
                                           ;@Allocation info for local variables in function 'light_handle'
                                           ;@end Allocation info for local variables in function 'light_handle';
                                           ;@Allocation info for local variables in function 'main'
                                           ;@end Allocation info for local variables in function 'main';
                                           ;@Allocation info for local variables in function 'int_isr'
                                           ;@int_isr ir_level_cnt              Allocated to registers ;size:2
                                           ;@int_isr __ir_data                 Allocated to registers ;size:1
                                           ;@int_isr cnt                       Allocated to registers ;size:1
                                           ;@end Allocation info for local variables in function 'int_isr';
                                           
                                           ;--------------------------------------------------------
                                           ; overlayable items in internal ram 
                                           ;--------------------------------------------------------
                                           ;	udata_ovr
                                           ;--------------------------------------------------------
                                           ; reset vector 
                                           ;--------------------------------------------------------
                                           STARTUP	code 0x0000
000000   a0aa     goto    0xaa             	goto	_main
                                           ;--------------------------------------------------------
                                           ; interrupt and initialization code
                                           ;--------------------------------------------------------
                                           c_interrupt	code	0x8
                                           __sdcc_interrupt
                                           ;***
                                           ;  pBlock Stats: dbName = I
                                           ;***
                                           ;entry:  _int_isr	;Function start
                                           ; 0 exit points
                                           ;2 compiler assigned registers:
                                           ;   r0x1043
                                           ;   r0x1044
                                           ;; Starting pCode block
                                           _int_isr	;Function start
                                           ; 0 exit points
                                           ;	.line	1275; "MC32F7361.c"	__endasm;
                                           	;
000008   567e     movra   0x7e             	movra	_abuf;
000009   4587     swapar  0x187            	swapar	_PFLAG;
00000a   567f     movra   0x7f             	movra	_statusbuf;
                                           	
                                           ;	.line	1277; "MC32F7361.c"	if (T1IF & T1IE) // 1 100us
00000b   762d     clrr    0x2d             	CLRR	r0x1043
00000c   f38b     jbclr   0x18b, 0x1       	JBCLR	_INTFbits,1
00000d   662d     incr    0x2d             	INCR	r0x1043
00000e   762e     clrr    0x2e             	CLRR	r0x1044
00000f   f38a     jbclr   0x18a, 0x1       	JBCLR	_INTEbits,1
000010   662e     incr    0x2e             	INCR	r0x1044
000011   582e     movar   0x2e             	MOVAR	r0x1044
000012   7a2d     andra   0x2d             	ANDRA	r0x1043
000013   3c00     movai   0                	MOVAI	0x00
000014   5c2d     orar    0x2d             	ORAR	r0x1043
000015   f587     jbclr   0x187, 0x2       	JBCLR	PFLAG,2
000016   a0a5     goto    0xa5             	GOTO	_00624_DS_
                                           ;;swapping arguments (AOP_TYPEs 1/3)
                                           ;;unsigned compare: left >= lit(0x515=1301), size=2
                                           ;	.line	1292; "MC32F7361.c"	if (ir_level_cnt <= 1300)
000017   3c05     movai   0x5              	MOVAI	0x05
000018   4832     rsubar  0x32             	RSUBAR	(_int_isr_ir_level_cnt_196608_127 + 1)
000019   e587     jbset   0x187, 0x2       	JBSET	PFLAG,2
00001a   a01d     goto    0x1d             	GOTO	_00711_DS_
00001b   3c15     movai   0x15             	MOVAI	0x15
00001c   4831     rsubar  0x31             	RSUBAR	_int_isr_ir_level_cnt_196608_127
                                           _00711_DS_
00001d   f187     jbclr   0x187, 0         	JBCLR	PFLAG,0
00001e   a022     goto    0x22             	GOTO	_00577_DS_
                                           ;;genSkipc:3291: created from rifx:013B5EFC
                                           ;	.line	1293; "MC32F7361.c"	ir_level_cnt++;
00001f   6631     incr    0x31             	INCR	_int_isr_ir_level_cnt_196608_127
000020   f587     jbclr   0x187, 0x2       	JBCLR	PFLAG,2
000021   6632     incr    0x32             	INCR	(_int_isr_ir_level_cnt_196608_127 + 1)
                                           _00577_DS_
                                           ;	.line	1309; "MC32F7361.c"	if (IR_RECV_PIN)
000022   ed94     jbset   0x194, 0x6       	JBSET	_IOP1bits,6
000023   a039     goto    0x39             	GOTO	_00606_DS_
                                           ;	.line	1311; "MC32F7361.c"	last_level_in_ir_pin = 1; // 
000024   c280     bset    0x80, 0x1        	BSET	_flag1,1
                                           ;;swapping arguments (AOP_TYPEs 1/3)
                                           ;;unsigned compare: left >= lit(0x4B1=1201), size=2
                                           ;	.line	1314; "MC32F7361.c"	if (ir_level_cnt > 1200) // (120000us,120ms)
000025   3c04     movai   0x4              	MOVAI	0x04
000026   4832     rsubar  0x32             	RSUBAR	(_int_isr_ir_level_cnt_196608_127 + 1)
000027   e587     jbset   0x187, 0x2       	JBSET	PFLAG,2
000028   a02b     goto    0x2b             	GOTO	_00712_DS_
000029   3cb1     movai   0xb1             	MOVAI	0xb1
00002a   4831     rsubar  0x31             	RSUBAR	_int_isr_ir_level_cnt_196608_127
                                           _00712_DS_
00002b   e187     jbset   0x187, 0         	JBSET	PFLAG,0
00002c   a085     goto    0x85             	GOTO	_00607_DS_
                                           ;;genSkipc:3291: created from rifx:013B5EFC
                                           ;	.line	1317; "MC32F7361.c"	if (__ir_data != 0) // (__ir_data)
00002d   3c00     movai   0                	MOVAI	0x00
00002e   5c33     orar    0x33             	ORAR	_int_isr___ir_data_196608_127
00002f   f587     jbclr   0x187, 0x2       	JBCLR	PFLAG,2
000030   a037     goto    0x37             	GOTO	_00581_DS_
                                           ;	.line	1326; "MC32F7361.c"	if (0 == flag_is_recved_data)
000031   f080     jbclr   0x80, 0          	JBCLR	_flag1,0
000032   a037     goto    0x37             	GOTO	_00581_DS_
                                           ;	.line	1330; "MC32F7361.c"	ir_data = ~__ir_data;
000033   7033     comar   0x33             	COMAR	_int_isr___ir_data_196608_127
000034   568b     movra   0x8b             	MOVRA	_ir_data
                                           ;	.line	1331; "MC32F7361.c"	__ir_data = 0;
000035   7633     clrr    0x33             	CLRR	_int_isr___ir_data_196608_127
                                           ;	.line	1332; "MC32F7361.c"	flag_is_recved_data = 1;
000036   c080     bset    0x80, 0          	BSET	_flag1,0
                                           _00581_DS_
                                           ;	.line	1337; "MC32F7361.c"	flag_is_recv_ir_repeat_code = 0; // 
000037   d480     bclr    0x80, 0x2        	BCLR	_flag1,2
000038   a085     goto    0x85             	GOTO	_00607_DS_
                                           _00606_DS_
                                           ;	.line	1342; "MC32F7361.c"	if (last_level_in_ir_pin)
000039   e280     jbset   0x80, 0x1        	JBSET	_flag1,1
00003a   a084     goto    0x84             	GOTO	_00604_DS_
                                           ;;swapping arguments (AOP_TYPEs 1/3)
                                           ;;unsigned compare: left >= lit(0x9=9), size=2
                                           ;	.line	1345; "MC32F7361.c"	if (ir_level_cnt <= 8) // 800us
00003b   3c00     movai   0                	MOVAI	0x00
00003c   4832     rsubar  0x32             	RSUBAR	(_int_isr_ir_level_cnt_196608_127 + 1)
00003d   e587     jbset   0x187, 0x2       	JBSET	PFLAG,2
00003e   a041     goto    0x41             	GOTO	_00713_DS_
00003f   3c09     movai   0x9              	MOVAI	0x09
000040   4831     rsubar  0x31             	RSUBAR	_int_isr_ir_level_cnt_196608_127
                                           _00713_DS_
000041   f187     jbclr   0x187, 0         	JBCLR	PFLAG,0
000042   a045     goto    0x45             	GOTO	_00601_DS_
                                           ;;genSkipc:3291: created from rifx:013B5EFC
                                           ;	.line	1348; "MC32F7361.c"	flag_is_recv_ir_repeat_code = 0;
000043   d480     bclr    0x80, 0x2        	BCLR	_flag1,2
000044   a082     goto    0x82             	GOTO	_00602_DS_
                                           ;;swapping arguments (AOP_TYPEs 1/3)
                                           ;;unsigned compare: left >= lit(0x13=19), size=2
                                           _00601_DS_
                                           ;	.line	1350; "MC32F7361.c"	else if (ir_level_cnt <= 18) // 1800us,0
000045   3c00     movai   0                	MOVAI	0x00
000046   4832     rsubar  0x32             	RSUBAR	(_int_isr_ir_level_cnt_196608_127 + 1)
000047   e587     jbset   0x187, 0x2       	JBSET	PFLAG,2
000048   a04b     goto    0x4b             	GOTO	_00714_DS_
000049   3c13     movai   0x13             	MOVAI	0x13
00004a   4831     rsubar  0x31             	RSUBAR	_int_isr_ir_level_cnt_196608_127
                                           _00714_DS_
00004b   f187     jbclr   0x187, 0         	JBCLR	PFLAG,0
00004c   a053     goto    0x53             	GOTO	_00598_DS_
                                           ;;genSkipc:3291: created from rifx:013B5EFC
                                           ;	.line	1352; "MC32F7361.c"	__ir_data <<= 1;
00004d   5833     movar   0x33             	MOVAR	_int_isr___ir_data_196608_127
00004e   562d     movra   0x2d             	MOVRA	r0x1043
00004f   d187     bclr    0x187, 0         	BCLR	PFLAG,0
000050   502d     rlar    0x2d             	RLAR	r0x1043
000051   5633     movra   0x33             	MOVRA	_int_isr___ir_data_196608_127
000052   a082     goto    0x82             	GOTO	_00602_DS_
                                           ;;swapping arguments (AOP_TYPEs 1/3)
                                           ;;unsigned compare: left >= lit(0x1B=27), size=2
                                           _00598_DS_
                                           ;	.line	1357; "MC32F7361.c"	else if (ir_level_cnt <= 26) // 2600us,1
000053   3c00     movai   0                	MOVAI	0x00
000054   4832     rsubar  0x32             	RSUBAR	(_int_isr_ir_level_cnt_196608_127 + 1)
000055   e587     jbset   0x187, 0x2       	JBSET	PFLAG,2
000056   a059     goto    0x59             	GOTO	_00715_DS_
000057   3c1b     movai   0x1b             	MOVAI	0x1b
000058   4831     rsubar  0x31             	RSUBAR	_int_isr_ir_level_cnt_196608_127
                                           _00715_DS_
000059   f187     jbclr   0x187, 0         	JBCLR	PFLAG,0
00005a   a062     goto    0x62             	GOTO	_00595_DS_
                                           ;;genSkipc:3291: created from rifx:013B5EFC
                                           ;	.line	1359; "MC32F7361.c"	__ir_data <<= 1;
00005b   5833     movar   0x33             	MOVAR	_int_isr___ir_data_196608_127
00005c   562d     movra   0x2d             	MOVRA	r0x1043
00005d   d187     bclr    0x187, 0         	BCLR	PFLAG,0
00005e   502d     rlar    0x2d             	RLAR	r0x1043
00005f   5633     movra   0x33             	MOVRA	_int_isr___ir_data_196608_127
                                           ;	.line	1360; "MC32F7361.c"	__ir_data |= 0x01;
000060   c033     bset    0x33, 0          	BSET	_int_isr___ir_data_196608_127,0
000061   a082     goto    0x82             	GOTO	_00602_DS_
                                           ;;swapping arguments (AOP_TYPEs 1/3)
                                           ;;unsigned compare: left >= lit(0x97=151), size=2
                                           _00595_DS_
                                           ;	.line	1364; "MC32F7361.c"	else if (ir_level_cnt <= 150) // 15000us,
000062   3c00     movai   0                	MOVAI	0x00
000063   4832     rsubar  0x32             	RSUBAR	(_int_isr_ir_level_cnt_196608_127 + 1)
000064   e587     jbset   0x187, 0x2       	JBSET	PFLAG,2
000065   a068     goto    0x68             	GOTO	_00716_DS_
000066   3c97     movai   0x97             	MOVAI	0x97
000067   4831     rsubar  0x31             	RSUBAR	_int_isr_ir_level_cnt_196608_127
                                           _00716_DS_
000068   e187     jbset   0x187, 0         	JBSET	PFLAG,0
000069   a082     goto    0x82             	GOTO	_00602_DS_
                                           ;;genSkipc:3291: created from rifx:013B5EFC
                                           ;;swapping arguments (AOP_TYPEs 1/3)
                                           ;;unsigned compare: left >= lit(0x1A5=421), size=2
                                           ;	.line	1369; "MC32F7361.c"	else if (ir_level_cnt <= 420) // 42ms,
00006a   3c01     movai   0x1              	MOVAI	0x01
00006b   4832     rsubar  0x32             	RSUBAR	(_int_isr_ir_level_cnt_196608_127 + 1)
00006c   e587     jbset   0x187, 0x2       	JBSET	PFLAG,2
00006d   a070     goto    0x70             	GOTO	_00717_DS_
00006e   3ca5     movai   0xa5             	MOVAI	0xa5
00006f   4831     rsubar  0x31             	RSUBAR	_int_isr_ir_level_cnt_196608_127
                                           _00717_DS_
000070   f187     jbclr   0x187, 0         	JBCLR	PFLAG,0
000071   a079     goto    0x79             	GOTO	_00589_DS_
                                           ;;genSkipc:3291: created from rifx:013B5EFC
                                           ;	.line	1382; "MC32F7361.c"	if (0 == flag_is_recved_data) // /
000072   f080     jbclr   0x80, 0          	JBCLR	_flag1,0
000073   a082     goto    0x82             	GOTO	_00602_DS_
                                           ;	.line	1386; "MC32F7361.c"	ir_data = ~__ir_data;
000074   7033     comar   0x33             	COMAR	_int_isr___ir_data_196608_127
000075   568b     movra   0x8b             	MOVRA	_ir_data
                                           ;	.line	1387; "MC32F7361.c"	__ir_data = 0;
000076   7633     clrr    0x33             	CLRR	_int_isr___ir_data_196608_127
                                           ;	.line	1388; "MC32F7361.c"	flag_is_recved_data = 1;
000077   c080     bset    0x80, 0          	BSET	_flag1,0
000078   a082     goto    0x82             	GOTO	_00602_DS_
                                           ;;swapping arguments (AOP_TYPEs 1/3)
                                           ;;unsigned compare: left >= lit(0x4B1=1201), size=2
                                           _00589_DS_
                                           ;	.line	1395; "MC32F7361.c"	else if (ir_level_cnt <= 1200) // 120000,120ms,
000079   3c04     movai   0x4              	MOVAI	0x04
00007a   4832     rsubar  0x32             	RSUBAR	(_int_isr_ir_level_cnt_196608_127 + 1)
00007b   e587     jbset   0x187, 0x2       	JBSET	PFLAG,2
00007c   a07f     goto    0x7f             	GOTO	_00718_DS_
00007d   3cb1     movai   0xb1             	MOVAI	0xb1
00007e   4831     rsubar  0x31             	RSUBAR	_int_isr_ir_level_cnt_196608_127
                                           _00718_DS_
00007f   f187     jbclr   0x187, 0         	JBCLR	PFLAG,0
000080   a082     goto    0x82             	GOTO	_00602_DS_
                                           ;;genSkipc:3291: created from rifx:013B5EFC
                                           ;	.line	1400; "MC32F7361.c"	flag_is_recv_ir_repeat_code = 1;
000081   c480     bset    0x80, 0x2        	BSET	_flag1,2
                                           _00602_DS_
                                           ;	.line	1406; "MC32F7361.c"	ir_level_cnt = 0;
000082   7631     clrr    0x31             	CLRR	_int_isr_ir_level_cnt_196608_127
000083   7632     clrr    0x32             	CLRR	(_int_isr_ir_level_cnt_196608_127 + 1)
                                           _00604_DS_
                                           ;	.line	1409; "MC32F7361.c"	last_level_in_ir_pin = 0; // 
000084   d280     bclr    0x80, 0x1        	BCLR	_flag1,1
                                           _00607_DS_
                                           ;	.line	1418; "MC32F7361.c"	cnt++;
000085   6634     incr    0x34             	INCR	_int_isr_cnt_196608_143
                                           ;;swapping arguments (AOP_TYPEs 1/3)
                                           ;;unsigned compare: left >= lit(0x15=21), size=1
                                           ;	.line	1419; "MC32F7361.c"	if (cnt <= 20) // 20 * 100us
000086   3c15     movai   0x15             	MOVAI	0x15
000087   4834     rsubar  0x34             	RSUBAR	_int_isr_cnt_196608_143
000088   f187     jbclr   0x187, 0         	JBCLR	PFLAG,0
000089   a09a     goto    0x9a             	GOTO	_00619_DS_
                                           ;;genSkipc:3291: created from rifx:013B5EFC
                                           ;	.line	1421; "MC32F7361.c"	if (flag_is_led_1_enable)
00008a   e081     jbset   0x81, 0          	JBSET	_flag2,0
00008b   a08d     goto    0x8d             	GOTO	_00609_DS_
                                           ;	.line	1423; "MC32F7361.c"	LED_1_PIN = LED_ON_LEVEL;
00008c   cf94     bset    0x194, 0x7       	BSET	_IOP1bits,7
                                           _00609_DS_
                                           ;	.line	1426; "MC32F7361.c"	if (flag_is_led_2_enable)
00008d   e281     jbset   0x81, 0x1        	JBSET	_flag2,1
00008e   a090     goto    0x90             	GOTO	_00611_DS_
                                           ;	.line	1428; "MC32F7361.c"	LED_2_PIN = LED_ON_LEVEL;
00008f   c190     bset    0x190, 0         	BSET	_IOP0bits,0
                                           _00611_DS_
                                           ;	.line	1431; "MC32F7361.c"	if (flag_is_led_3_enable)
000090   e481     jbset   0x81, 0x2        	JBSET	_flag2,2
000091   a093     goto    0x93             	GOTO	_00613_DS_
                                           ;	.line	1433; "MC32F7361.c"	LED_3_PIN = LED_ON_LEVEL;
000092   c390     bset    0x190, 0x1       	BSET	_IOP0bits,1
                                           _00613_DS_
                                           ;	.line	1436; "MC32F7361.c"	if (flag_is_led_4_enable)
000093   e681     jbset   0x81, 0x3        	JBSET	_flag2,3
000094   a096     goto    0x96             	GOTO	_00615_DS_
                                           ;	.line	1438; "MC32F7361.c"	LED_4_PIN = LED_ON_LEVEL;
000095   c790     bset    0x190, 0x3       	BSET	_IOP0bits,3
                                           _00615_DS_
                                           ;	.line	1441; "MC32F7361.c"	if (flag_is_led_5_enable)
000096   e881     jbset   0x81, 0x4        	JBSET	_flag2,4
000097   a09f     goto    0x9f             	GOTO	_00620_DS_
                                           ;	.line	1443; "MC32F7361.c"	LED_5_PIN = LED_ON_LEVEL;
000098   c990     bset    0x190, 0x4       	BSET	_IOP0bits,4
000099   a09f     goto    0x9f             	GOTO	_00620_DS_
                                           _00619_DS_
                                           ;	.line	1448; "MC32F7361.c"	LED_1_PIN = LED_OFF_LEVEL;
00009a   df94     bclr    0x194, 0x7       	BCLR	_IOP1bits,7
                                           ;	.line	1449; "MC32F7361.c"	LED_2_PIN = LED_OFF_LEVEL;
00009b   d190     bclr    0x190, 0         	BCLR	_IOP0bits,0
                                           ;	.line	1450; "MC32F7361.c"	LED_3_PIN = LED_OFF_LEVEL;
00009c   d390     bclr    0x190, 0x1       	BCLR	_IOP0bits,1
                                           ;	.line	1451; "MC32F7361.c"	LED_4_PIN = LED_OFF_LEVEL;
00009d   d790     bclr    0x190, 0x3       	BCLR	_IOP0bits,3
                                           ;	.line	1452; "MC32F7361.c"	LED_5_PIN = LED_OFF_LEVEL;
00009e   d990     bclr    0x190, 0x4       	BCLR	_IOP0bits,4
                                           ;;unsigned compare: left < lit(0x64=100), size=1
                                           _00620_DS_
                                           ;	.line	1455; "MC32F7361.c"	if (cnt >= 100) // 100 * 100us
00009f   3c64     movai   0x64             	MOVAI	0x64
0000a0   4834     rsubar  0x34             	RSUBAR	_int_isr_cnt_196608_143
0000a1   e187     jbset   0x187, 0         	JBSET	PFLAG,0
0000a2   a0a4     goto    0xa4             	GOTO	_00622_DS_
                                           ;;genSkipc:3291: created from rifx:013B5EFC
                                           ;	.line	1457; "MC32F7361.c"	cnt = 0;
0000a3   7634     clrr    0x34             	CLRR	_int_isr_cnt_196608_143
                                           _00622_DS_
                                           ;	.line	1464; "MC32F7361.c"	T1IF = 0; // 
0000a4   d38b     bclr    0x18b, 0x1       	BCLR	_INTFbits,1
                                           _00624_DS_
                                           ;	.line	1479; "MC32F7361.c"	__endasm;
                                           	;
0000a5   447f     swapar  0x7f             	swapar	_statusbuf;
0000a6   5787     movra   0x187            	movra	_PFLAG;
0000a7   467e     swapr   0x7e             	swapr	_abuf;
0000a8   447e     swapar  0x7e             	swapar	_abuf;
                                           	
                                           END_OF_INTERRUPT
                                           ;	.line	1480; "MC32F7361.c"	}
0000a9   000d     retie                    	RETIE	
                                           
                                           ;--------------------------------------------------------
                                           ; code
                                           ;--------------------------------------------------------
                                           code_MC32F7361	code
                                           ;***
                                           ;  pBlock Stats: dbName = M
                                           ;***
                                           ;entry:  _main	;Function start
                                           ; 2 exit points
                                           ;has an exit
                                           ;functions called:
                                           ;   _sys_init
                                           ;   _charge_handle
                                           ;   _sys_init
                                           ;   _charge_handle
                                           ;; Starting pCode block
                                           _main	;Function start
                                           ; 2 exit points
                                           ;	.line	1259; "MC32F7361.c"	sys_init();
0000aa   837c     call    0x37c            	CALL	_sys_init
                                           _00571_DS_
                                           ;	.line	1265; "MC32F7361.c"	charge_handle();
0000ab   81ad     call    0x1ad            	CALL	_charge_handle
0000ac   a0ab     goto    0xab             	GOTO	_00571_DS_
                                           ;	.line	1267; "MC32F7361.c"	}
0000ad   000c     return                   	RETURN	
                                           ; exit point of _main
                                           
                                           ;***
                                           ;  pBlock Stats: dbName = C
                                           ;***
                                           ;entry:  _light_handle	;Function start
                                           ; 2 exit points
                                           ;has an exit
                                           ;functions called:
                                           ;   __mulint
                                           ;   __mulint
                                           ;9 compiler assigned registers:
                                           ;   r0x1039
                                           ;   r0x103A
                                           ;   STK02
                                           ;   STK01
                                           ;   STK00
                                           ;   r0x103B
                                           ;   r0x103C
                                           ;   r0x103D
                                           ;   r0x103E
                                           ;; Starting pCode block
                                           _light_handle	;Function start
                                           ; 2 exit points
                                           ;	.line	1133; "MC32F7361.c"	if (cur_charge_phase != CUR_CHARGE_PHASE_NONE ||
0000ae   3c00     movai   0                	MOVAI	0x00
0000af   5c84     orar    0x84             	ORAR	_cur_charge_phase
0000b0   e587     jbset   0x187, 0x2       	JBSET	PFLAG,2
0000b1   a0b6     goto    0xb6             	GOTO	_00464_DS_
                                           ;	.line	1134; "MC32F7361.c"	cur_led_mode == CUR_LED_MODE_OFF) /*  */
0000b2   3c00     movai   0                	MOVAI	0x00
0000b3   5c87     orar    0x87             	ORAR	_cur_led_mode
0000b4   e587     jbset   0x187, 0x2       	JBSET	PFLAG,2
0000b5   a0b7     goto    0xb7             	GOTO	_00465_DS_
                                           _00464_DS_
                                           ;	.line	1136; "MC32F7361.c"	return;
0000b6   a181     goto    0x181            	GOTO	_00502_DS_
                                           _00465_DS_
                                           ;	.line	1141; "MC32F7361.c"	if (1 == cur_discharge_rate) // 1M1
0000b7   5886     movar   0x86             	MOVAR	_cur_discharge_rate
0000b8   3901     xorai   0x1              	XORAI	0x01
0000b9   e587     jbset   0x187, 0x2       	JBSET	PFLAG,2
0000ba   a101     goto    0x101            	GOTO	_00497_DS_
                                           ;	.line	1157; "MC32F7361.c"	if (light_adjust_time_cnt >= (1200 * light_ctl_phase_in_rate_1)) // 
0000bb   588d     movar   0x8d             	MOVAR	_light_ctl_phase_in_rate_1
0000bc   5627     movra   0x27             	MOVRA	r0x1039
0000bd   7628     clrr    0x28             	CLRR	r0x103A
0000be   5827     movar   0x27             	MOVAR	r0x1039
0000bf   5604     movra   0x4              	MOVRA	STK02
0000c0   3c00     movai   0                	MOVAI	0x00
0000c1   5605     movra   0x5              	MOVRA	STK01
0000c2   3cb0     movai   0xb0             	MOVAI	0xb0
0000c3   5606     movra   0x6              	MOVRA	STK00
0000c4   3c04     movai   0x4              	MOVAI	0x04
0000c5   8629     call    0x629            	CALL	__mulint
0000c6   562a     movra   0x2a             	MOVRA	r0x103C
0000c7   5628     movra   0x28             	MOVRA	r0x103A
0000c8   5806     movar   0x6              	MOVAR	STK00
0000c9   5629     movra   0x29             	MOVRA	r0x103B
0000ca   5627     movra   0x27             	MOVRA	r0x1039
                                           ;;120	MOVAR	r0x1039
                                           ;;121	MOVAR	r0x103A
0000cb   3c00     movai   0                	MOVAI	0x00
0000cc   fe2a     jbclr   0x2a, 0x7        	JBCLR	r0x103C,7
0000cd   3cff     movai   0xff             	MOVAI	0xff
0000ce   562c     movra   0x2c             	MOVRA	r0x103D
0000cf   562b     movra   0x2b             	MOVRA	r0x103E
0000d0   582c     movar   0x2c             	MOVAR	r0x103D
0000d1   486b     rsubar  0x6b             	RSUBAR	(_light_adjust_time_cnt + 3)
0000d2   e587     jbset   0x187, 0x2       	JBSET	PFLAG,2
0000d3   a0de     goto    0xde             	GOTO	_00556_DS_
0000d4   582b     movar   0x2b             	MOVAR	r0x103E
0000d5   486a     rsubar  0x6a             	RSUBAR	(_light_adjust_time_cnt + 2)
0000d6   e587     jbset   0x187, 0x2       	JBSET	PFLAG,2
0000d7   a0de     goto    0xde             	GOTO	_00556_DS_
0000d8   582a     movar   0x2a             	MOVAR	r0x103C
0000d9   4869     rsubar  0x69             	RSUBAR	(_light_adjust_time_cnt + 1)
0000da   e587     jbset   0x187, 0x2       	JBSET	PFLAG,2
0000db   a0de     goto    0xde             	GOTO	_00556_DS_
0000dc   5829     movar   0x29             	MOVAR	r0x103B
0000dd   4868     rsubar  0x68             	RSUBAR	_light_adjust_time_cnt
                                           _00556_DS_
0000de   e187     jbset   0x187, 0         	JBSET	PFLAG,0
0000df   a17f     goto    0x17f            	GOTO	_00499_DS_
                                           ;;genSkipc:3291: created from rifx:013B5EFC
                                           ;	.line	1159; "MC32F7361.c"	light_adjust_time_cnt = 0;
0000e0   7668     clrr    0x68             	CLRR	_light_adjust_time_cnt
0000e1   7669     clrr    0x69             	CLRR	(_light_adjust_time_cnt + 1)
0000e2   766a     clrr    0x6a             	CLRR	(_light_adjust_time_cnt + 2)
0000e3   766b     clrr    0x6b             	CLRR	(_light_adjust_time_cnt + 3)
                                           ;	.line	1161; "MC32F7361.c"	if (1 == light_ctl_phase_in_rate_1)
0000e4   588d     movar   0x8d             	MOVAR	_light_ctl_phase_in_rate_1
0000e5   3901     xorai   0x1              	XORAI	0x01
0000e6   e587     jbset   0x187, 0x2       	JBSET	PFLAG,2
0000e7   a0eb     goto    0xeb             	GOTO	_00468_DS_
                                           ;	.line	1163; "MC32F7361.c"	light_ctl_phase_in_rate_1 = 3;
0000e8   3c03     movai   0x3              	MOVAI	0x03
0000e9   568d     movra   0x8d             	MOVRA	_light_ctl_phase_in_rate_1
0000ea   a0f0     goto    0xf0             	GOTO	_00469_DS_
                                           _00468_DS_
                                           ;	.line	1167; "MC32F7361.c"	light_ctl_phase_in_rate_1 += 3;
0000eb   588d     movar   0x8d             	MOVAR	_light_ctl_phase_in_rate_1
0000ec   5627     movra   0x27             	MOVRA	r0x1039
0000ed   3c03     movai   0x3              	MOVAI	0x03
0000ee   7c27     addar   0x27             	ADDAR	r0x1039
0000ef   568d     movra   0x8d             	MOVRA	_light_ctl_phase_in_rate_1
                                           ;;unsigned compare: left < lit(0x25=37), size=2
                                           _00469_DS_
                                           ;	.line	1171; "MC32F7361.c"	if (cur_light_pwm_duty_val >= ((u32)LIGHT_TIMER_FEQ_VAL * 48 / 1000) + ((u32)LIGHT_TIMER_FEQ_VAL * 10 / 100))
0000f0   3c00     movai   0                	MOVAI	0x00
0000f1   487b     rsubar  0x7b             	RSUBAR	(_cur_light_pwm_duty_val + 1)
0000f2   e587     jbset   0x187, 0x2       	JBSET	PFLAG,2
0000f3   a0f6     goto    0xf6             	GOTO	_00557_DS_
0000f4   3c25     movai   0x25             	MOVAI	0x25
0000f5   487a     rsubar  0x7a             	RSUBAR	_cur_light_pwm_duty_val
                                           _00557_DS_
0000f6   e187     jbset   0x187, 0         	JBSET	PFLAG,0
0000f7   a0fd     goto    0xfd             	GOTO	_00471_DS_
                                           ;;genSkipc:3291: created from rifx:013B5EFC
                                           ;	.line	1174; "MC32F7361.c"	cur_light_pwm_duty_val -= (u32)LIGHT_TIMER_FEQ_VAL * 10 / 100;
0000f8   3ce7     movai   0xe7             	MOVAI	0xe7
0000f9   7e7a     addra   0x7a             	ADDRA	_cur_light_pwm_duty_val
0000fa   e187     jbset   0x187, 0         	JBSET	PFLAG,0
0000fb   6e7b     decr    0x7b             	DECR	(_cur_light_pwm_duty_val + 1)
0000fc   a17f     goto    0x17f            	GOTO	_00499_DS_
                                           _00471_DS_
                                           ;	.line	1179; "MC32F7361.c"	cur_light_pwm_duty_val = (u32)LIGHT_TIMER_FEQ_VAL * 48 / 1000;
0000fd   3c0c     movai   0xc              	MOVAI	0x0c
0000fe   567a     movra   0x7a             	MOVRA	_cur_light_pwm_duty_val
0000ff   767b     clrr    0x7b             	CLRR	(_cur_light_pwm_duty_val + 1)
000100   a17f     goto    0x17f            	GOTO	_00499_DS_
                                           ;;swapping arguments (AOP_TYPEs 1/3)
                                           ;;unsigned compare: left >= lit(0x78=120), size=2
                                           _00497_DS_
                                           ;	.line	1194; "MC32F7361.c"	if (cur_light_pwm_duty_val > (u32)LIGHT_TIMER_FEQ_VAL * 47 / 100)
000101   3c00     movai   0                	MOVAI	0x00
000102   487b     rsubar  0x7b             	RSUBAR	(_cur_light_pwm_duty_val + 1)
000103   e587     jbset   0x187, 0x2       	JBSET	PFLAG,2
000104   a107     goto    0x107            	GOTO	_00558_DS_
000105   3c78     movai   0x78             	MOVAI	0x78
000106   487a     rsubar  0x7a             	RSUBAR	_cur_light_pwm_duty_val
                                           _00558_DS_
000107   e187     jbset   0x187, 0         	JBSET	PFLAG,0
000108   a12e     goto    0x12e            	GOTO	_00494_DS_
                                           ;;genSkipc:3291: created from rifx:013B5EFC
                                           ;;unsigned compare: left < lit(0x28=40), size=4
                                           ;	.line	1196; "MC32F7361.c"	if (light_adjust_time_cnt >= 40)
000109   3c00     movai   0                	MOVAI	0x00
00010a   486b     rsubar  0x6b             	RSUBAR	(_light_adjust_time_cnt + 3)
00010b   e587     jbset   0x187, 0x2       	JBSET	PFLAG,2
00010c   a117     goto    0x117            	GOTO	_00559_DS_
00010d   3c00     movai   0                	MOVAI	0x00
00010e   486a     rsubar  0x6a             	RSUBAR	(_light_adjust_time_cnt + 2)
00010f   e587     jbset   0x187, 0x2       	JBSET	PFLAG,2
000110   a117     goto    0x117            	GOTO	_00559_DS_
000111   3c00     movai   0                	MOVAI	0x00
000112   4869     rsubar  0x69             	RSUBAR	(_light_adjust_time_cnt + 1)
000113   e587     jbset   0x187, 0x2       	JBSET	PFLAG,2
000114   a117     goto    0x117            	GOTO	_00559_DS_
000115   3c28     movai   0x28             	MOVAI	0x28
000116   4868     rsubar  0x68             	RSUBAR	_light_adjust_time_cnt
                                           _00559_DS_
000117   e187     jbset   0x187, 0         	JBSET	PFLAG,0
000118   a17f     goto    0x17f            	GOTO	_00499_DS_
                                           ;;genSkipc:3291: created from rifx:013B5EFC
                                           ;	.line	1198; "MC32F7361.c"	light_adjust_time_cnt = 0;
000119   7668     clrr    0x68             	CLRR	_light_adjust_time_cnt
00011a   7669     clrr    0x69             	CLRR	(_light_adjust_time_cnt + 1)
00011b   766a     clrr    0x6a             	CLRR	(_light_adjust_time_cnt + 2)
00011c   766b     clrr    0x6b             	CLRR	(_light_adjust_time_cnt + 3)
                                           ;;unsigned compare: left < lit(0xD=13), size=2
                                           ;	.line	1200; "MC32F7361.c"	if (cur_light_pwm_duty_val >= ((u32)LIGHT_TIMER_FEQ_VAL * 48 / 1000) + ((u32)LIGHT_TIMER_FEQ_VAL * 6 / 1000))
00011d   3c00     movai   0                	MOVAI	0x00
00011e   487b     rsubar  0x7b             	RSUBAR	(_cur_light_pwm_duty_val + 1)
00011f   e587     jbset   0x187, 0x2       	JBSET	PFLAG,2
000120   a123     goto    0x123            	GOTO	_00560_DS_
000121   3c0d     movai   0xd              	MOVAI	0x0d
000122   487a     rsubar  0x7a             	RSUBAR	_cur_light_pwm_duty_val
                                           _00560_DS_
000123   e187     jbset   0x187, 0         	JBSET	PFLAG,0
000124   a12a     goto    0x12a            	GOTO	_00476_DS_
                                           ;;genSkipc:3291: created from rifx:013B5EFC
                                           ;	.line	1203; "MC32F7361.c"	cur_light_pwm_duty_val -= (u32)LIGHT_TIMER_FEQ_VAL * 6 / 1000;
000125   3cff     movai   0xff             	MOVAI	0xff
000126   7e7a     addra   0x7a             	ADDRA	_cur_light_pwm_duty_val
000127   e187     jbset   0x187, 0         	JBSET	PFLAG,0
000128   6e7b     decr    0x7b             	DECR	(_cur_light_pwm_duty_val + 1)
000129   a17f     goto    0x17f            	GOTO	_00499_DS_
                                           _00476_DS_
                                           ;	.line	1208; "MC32F7361.c"	cur_light_pwm_duty_val = (u32)LIGHT_TIMER_FEQ_VAL * 48 / 1000;
00012a   3c0c     movai   0xc              	MOVAI	0x0c
00012b   567a     movra   0x7a             	MOVRA	_cur_light_pwm_duty_val
00012c   767b     clrr    0x7b             	CLRR	(_cur_light_pwm_duty_val + 1)
00012d   a17f     goto    0x17f            	GOTO	_00499_DS_
                                           ;;swapping arguments (AOP_TYPEs 1/3)
                                           ;;unsigned compare: left >= lit(0x6B=107), size=2
                                           _00494_DS_
                                           ;	.line	1213; "MC32F7361.c"	else if (cur_light_pwm_duty_val > (u32)LIGHT_TIMER_FEQ_VAL * 42 / 100)
00012e   3c00     movai   0                	MOVAI	0x00
00012f   487b     rsubar  0x7b             	RSUBAR	(_cur_light_pwm_duty_val + 1)
000130   e587     jbset   0x187, 0x2       	JBSET	PFLAG,2
000131   a134     goto    0x134            	GOTO	_00561_DS_
000132   3c6b     movai   0x6b             	MOVAI	0x6b
000133   487a     rsubar  0x7a             	RSUBAR	_cur_light_pwm_duty_val
                                           _00561_DS_
000134   e187     jbset   0x187, 0         	JBSET	PFLAG,0
000135   a15b     goto    0x15b            	GOTO	_00491_DS_
                                           ;;genSkipc:3291: created from rifx:013B5EFC
                                           ;;unsigned compare: left < lit(0xF0=240), size=4
                                           ;	.line	1215; "MC32F7361.c"	if (light_adjust_time_cnt >= 240)
000136   3c00     movai   0                	MOVAI	0x00
000137   486b     rsubar  0x6b             	RSUBAR	(_light_adjust_time_cnt + 3)
000138   e587     jbset   0x187, 0x2       	JBSET	PFLAG,2
000139   a144     goto    0x144            	GOTO	_00562_DS_
00013a   3c00     movai   0                	MOVAI	0x00
00013b   486a     rsubar  0x6a             	RSUBAR	(_light_adjust_time_cnt + 2)
00013c   e587     jbset   0x187, 0x2       	JBSET	PFLAG,2
00013d   a144     goto    0x144            	GOTO	_00562_DS_
00013e   3c00     movai   0                	MOVAI	0x00
00013f   4869     rsubar  0x69             	RSUBAR	(_light_adjust_time_cnt + 1)
000140   e587     jbset   0x187, 0x2       	JBSET	PFLAG,2
000141   a144     goto    0x144            	GOTO	_00562_DS_
000142   3cf0     movai   0xf0             	MOVAI	0xf0
000143   4868     rsubar  0x68             	RSUBAR	_light_adjust_time_cnt
                                           _00562_DS_
000144   e187     jbset   0x187, 0         	JBSET	PFLAG,0
000145   a17f     goto    0x17f            	GOTO	_00499_DS_
                                           ;;genSkipc:3291: created from rifx:013B5EFC
                                           ;	.line	1217; "MC32F7361.c"	light_adjust_time_cnt = 0;
000146   7668     clrr    0x68             	CLRR	_light_adjust_time_cnt
000147   7669     clrr    0x69             	CLRR	(_light_adjust_time_cnt + 1)
000148   766a     clrr    0x6a             	CLRR	(_light_adjust_time_cnt + 2)
000149   766b     clrr    0x6b             	CLRR	(_light_adjust_time_cnt + 3)
                                           ;;unsigned compare: left < lit(0xD=13), size=2
                                           ;	.line	1219; "MC32F7361.c"	if (cur_light_pwm_duty_val >= ((u32)LIGHT_TIMER_FEQ_VAL * 48 / 1000) + ((u32)LIGHT_TIMER_FEQ_VAL * 6 / 1000))
00014a   3c00     movai   0                	MOVAI	0x00
00014b   487b     rsubar  0x7b             	RSUBAR	(_cur_light_pwm_duty_val + 1)
00014c   e587     jbset   0x187, 0x2       	JBSET	PFLAG,2
00014d   a150     goto    0x150            	GOTO	_00563_DS_
00014e   3c0d     movai   0xd              	MOVAI	0x0d
00014f   487a     rsubar  0x7a             	RSUBAR	_cur_light_pwm_duty_val
                                           _00563_DS_
000150   e187     jbset   0x187, 0         	JBSET	PFLAG,0
000151   a157     goto    0x157            	GOTO	_00481_DS_
                                           ;;genSkipc:3291: created from rifx:013B5EFC
                                           ;	.line	1222; "MC32F7361.c"	cur_light_pwm_duty_val -= (u32)LIGHT_TIMER_FEQ_VAL * 6 / 1000;
000152   3cff     movai   0xff             	MOVAI	0xff
000153   7e7a     addra   0x7a             	ADDRA	_cur_light_pwm_duty_val
000154   e187     jbset   0x187, 0         	JBSET	PFLAG,0
000155   6e7b     decr    0x7b             	DECR	(_cur_light_pwm_duty_val + 1)
000156   a17f     goto    0x17f            	GOTO	_00499_DS_
                                           _00481_DS_
                                           ;	.line	1227; "MC32F7361.c"	cur_light_pwm_duty_val = (u32)LIGHT_TIMER_FEQ_VAL * 48 / 1000;
000157   3c0c     movai   0xc              	MOVAI	0x0c
000158   567a     movra   0x7a             	MOVRA	_cur_light_pwm_duty_val
000159   767b     clrr    0x7b             	CLRR	(_cur_light_pwm_duty_val + 1)
00015a   a17f     goto    0x17f            	GOTO	_00499_DS_
                                           ;;unsigned compare: left < lit(0x1A4=420), size=4
                                           _00491_DS_
                                           ;	.line	1233; "MC32F7361.c"	if (light_adjust_time_cnt >= 420)
00015b   3c00     movai   0                	MOVAI	0x00
00015c   486b     rsubar  0x6b             	RSUBAR	(_light_adjust_time_cnt + 3)
00015d   e587     jbset   0x187, 0x2       	JBSET	PFLAG,2
00015e   a169     goto    0x169            	GOTO	_00564_DS_
00015f   3c00     movai   0                	MOVAI	0x00
000160   486a     rsubar  0x6a             	RSUBAR	(_light_adjust_time_cnt + 2)
000161   e587     jbset   0x187, 0x2       	JBSET	PFLAG,2
000162   a169     goto    0x169            	GOTO	_00564_DS_
000163   3c01     movai   0x1              	MOVAI	0x01
000164   4869     rsubar  0x69             	RSUBAR	(_light_adjust_time_cnt + 1)
000165   e587     jbset   0x187, 0x2       	JBSET	PFLAG,2
000166   a169     goto    0x169            	GOTO	_00564_DS_
000167   3ca4     movai   0xa4             	MOVAI	0xa4
000168   4868     rsubar  0x68             	RSUBAR	_light_adjust_time_cnt
                                           _00564_DS_
000169   e187     jbset   0x187, 0         	JBSET	PFLAG,0
00016a   a17f     goto    0x17f            	GOTO	_00499_DS_
                                           ;;genSkipc:3291: created from rifx:013B5EFC
                                           ;	.line	1235; "MC32F7361.c"	light_adjust_time_cnt = 0;
00016b   7668     clrr    0x68             	CLRR	_light_adjust_time_cnt
00016c   7669     clrr    0x69             	CLRR	(_light_adjust_time_cnt + 1)
00016d   766a     clrr    0x6a             	CLRR	(_light_adjust_time_cnt + 2)
00016e   766b     clrr    0x6b             	CLRR	(_light_adjust_time_cnt + 3)
                                           ;;unsigned compare: left < lit(0xD=13), size=2
                                           ;	.line	1237; "MC32F7361.c"	if (cur_light_pwm_duty_val >= ((u32)LIGHT_TIMER_FEQ_VAL * 48 / 1000) + ((u32)LIGHT_TIMER_FEQ_VAL * 6 / 1000))
00016f   3c00     movai   0                	MOVAI	0x00
000170   487b     rsubar  0x7b             	RSUBAR	(_cur_light_pwm_duty_val + 1)
000171   e587     jbset   0x187, 0x2       	JBSET	PFLAG,2
000172   a175     goto    0x175            	GOTO	_00565_DS_
000173   3c0d     movai   0xd              	MOVAI	0x0d
000174   487a     rsubar  0x7a             	RSUBAR	_cur_light_pwm_duty_val
                                           _00565_DS_
000175   e187     jbset   0x187, 0         	JBSET	PFLAG,0
000176   a17c     goto    0x17c            	GOTO	_00486_DS_
                                           ;;genSkipc:3291: created from rifx:013B5EFC
                                           ;	.line	1240; "MC32F7361.c"	cur_light_pwm_duty_val -= (u32)LIGHT_TIMER_FEQ_VAL * 6 / 1000;
000177   3cff     movai   0xff             	MOVAI	0xff
000178   7e7a     addra   0x7a             	ADDRA	_cur_light_pwm_duty_val
000179   e187     jbset   0x187, 0         	JBSET	PFLAG,0
00017a   6e7b     decr    0x7b             	DECR	(_cur_light_pwm_duty_val + 1)
00017b   a17f     goto    0x17f            	GOTO	_00499_DS_
                                           _00486_DS_
                                           ;	.line	1245; "MC32F7361.c"	cur_light_pwm_duty_val = (u32)LIGHT_TIMER_FEQ_VAL * 48 / 1000;
00017c   3c0c     movai   0xc              	MOVAI	0x0c
00017d   567a     movra   0x7a             	MOVRA	_cur_light_pwm_duty_val
00017e   767b     clrr    0x7b             	CLRR	(_cur_light_pwm_duty_val + 1)
                                           _00499_DS_
                                           ;	.line	1251; "MC32F7361.c"	LIGHT_SET_PWM_DUTY(cur_light_pwm_duty_val);
00017f   587a     movar   0x7a             	MOVAR	_cur_light_pwm_duty_val
000180   57a3     movra   0x1a3            	MOVRA	_T2DATA
                                           _00502_DS_
                                           ;	.line	1254; "MC32F7361.c"	}
000181   000c     return                   	RETURN	
                                           ; exit point of _light_handle
                                           
                                           ;***
                                           ;  pBlock Stats: dbName = C
                                           ;***
                                           ;entry:  _light_init	;Function start
                                           ; 2 exit points
                                           ;has an exit
                                           ;functions called:
                                           ;   __gptrget2
                                           ;   _light_blink
                                           ;   __gptrget2
                                           ;   _light_blink
                                           ;6 compiler assigned registers:
                                           ;   r0x103F
                                           ;   r0x1040
                                           ;   r0x1041
                                           ;   r0x1042
                                           ;   STK01
                                           ;   STK00
                                           ;; Starting pCode block
                                           _light_init	;Function start
                                           ; 2 exit points
                                           ;	.line	1113; "MC32F7361.c"	cur_light_pwm_duty_val = light_pwm_duty_init_val_table[cur_initial_discharge_gear - 1];
000182   5885     movar   0x85             	MOVAR	_cur_initial_discharge_gear
000183   5623     movra   0x23             	MOVRA	r0x103F
000184   6e23     decr    0x23             	DECR	r0x103F
000185   d187     bclr    0x187, 0         	BCLR	PFLAG,0
000186   5023     rlar    0x23             	RLAR	r0x103F
000187   5623     movra   0x23             	MOVRA	r0x103F
000188   5624     movra   0x24             	MOVRA	r0x1040
                                           ;;119	MOVAR	r0x1040
000189   7625     clrr    0x25             	CLRR	r0x1041
00018a   fe23     jbclr   0x23, 0x7        	JBCLR	r0x103F,7
00018b   6e25     decr    0x25             	DECR	r0x1041
00018c   5823     movar   0x23             	MOVAR	r0x103F
00018d   3feb     addai   0xeb             	ADDAI	(_light_pwm_duty_init_val_table + 0)
00018e   5624     movra   0x24             	MOVRA	r0x1040
00018f   3c06     movai   0x6              	MOVAI	high (_light_pwm_duty_init_val_table + 0)
000190   5626     movra   0x26             	MOVRA	r0x1042
000191   5825     movar   0x25             	MOVAR	r0x1041
000192   f187     jbclr   0x187, 0         	JBCLR	PFLAG,0
000193   6025     jzar    0x25             	JZAR	r0x1041
000194   7e26     addra   0x26             	ADDRA	r0x1042
000195   5824     movar   0x24             	MOVAR	r0x1040
000196   5605     movra   0x5              	MOVRA	STK01
000197   5826     movar   0x26             	MOVAR	r0x1042
000198   5606     movra   0x6              	MOVRA	STK00
000199   3c80     movai   0x80             	MOVAI	0x80
00019a   86ab     call    0x6ab            	CALL	__gptrget2
00019b   567b     movra   0x7b             	MOVRA	(_cur_light_pwm_duty_val + 1)
00019c   5806     movar   0x6              	MOVAR	STK00
00019d   567a     movra   0x7a             	MOVRA	_cur_light_pwm_duty_val
                                           ;	.line	1115; "MC32F7361.c"	LIGHT_SET_PWM_DUTY(cur_light_pwm_duty_val); // PWM
00019e   587a     movar   0x7a             	MOVAR	_cur_light_pwm_duty_val
00019f   57a3     movra   0x1a3            	MOVRA	_T2DATA
                                           ;	.line	1116; "MC32F7361.c"	LIGHT_ON();                                 // PWM
0001a0   3cc0     movai   0xc0             	MOVAI	0xc0
0001a1   5fa0     orra    0x1a0            	ORRA	_T2CR
                                           ;	.line	1117; "MC32F7361.c"	light_blink(3);                             // 
0001a2   3c03     movai   0x3              	MOVAI	0x03
0001a3   81a9     call    0x1a9            	CALL	_light_blink
                                           ;	.line	1118; "MC32F7361.c"	light_adjust_time_cnt = 0;                  // 
0001a4   7668     clrr    0x68             	CLRR	_light_adjust_time_cnt
0001a5   7669     clrr    0x69             	CLRR	(_light_adjust_time_cnt + 1)
0001a6   766a     clrr    0x6a             	CLRR	(_light_adjust_time_cnt + 2)
0001a7   766b     clrr    0x6b             	CLRR	(_light_adjust_time_cnt + 3)
                                           ;	.line	1119; "MC32F7361.c"	}
0001a8   000c     return                   	RETURN	
                                           ; exit point of _light_init
                                           
                                           ;***
                                           ;  pBlock Stats: dbName = C
                                           ;***
                                           ;entry:  _light_blink	;Function start
                                           ; 2 exit points
                                           ;has an exit
                                           ;; Starting pCode block
                                           _light_blink	;Function start
                                           ; 2 exit points
                                           ;	.line	1103; "MC32F7361.c"	void light_blink(u8 blink_cnt)
0001a9   5691     movra   0x91             	MOVRA	_light_ctl_blink_times
                                           ;	.line	1106; "MC32F7361.c"	flag_is_ctl_light_blink = 1; // 
0001aa   3c01     movai   0x1              	MOVAI	0x01
0001ab   5690     movra   0x90             	MOVRA	_flag_is_ctl_light_blink
                                           ;	.line	1107; "MC32F7361.c"	}
0001ac   000c     return                   	RETURN	
                                           ; exit point of _light_blink
                                           
                                           ;***
                                           ;  pBlock Stats: dbName = C
                                           ;***
                                           ;entry:  _charge_handle	;Function start
                                           ; 2 exit points
                                           ;has an exit
                                           ;functions called:
                                           ;   _adc_update_charge_adc_val
                                           ;   _adc_update_charge_adc_val
                                           ;   _timer0_pwm_disable
                                           ;   _adc_update_bat_adc_val
                                           ;   _timer0_pwm_set_low_feq
                                           ;   _timer0_pwm_disable
                                           ;   _timer0_pwm_set_high_feq
                                           ;   _adc_update_bat_adc_val
                                           ;   _adc_update_current_adc_val
                                           ;   __mullong
                                           ;   __divulong
                                           ;   __mullong
                                           ;   __mullong
                                           ;   __divulong
                                           ;   __mulint
                                           ;   __divuint
                                           ;   _adc_update_charge_adc_val
                                           ;   _adc_update_charge_adc_val
                                           ;   _timer0_pwm_disable
                                           ;   _adc_update_bat_adc_val
                                           ;   _timer0_pwm_set_low_feq
                                           ;   _timer0_pwm_disable
                                           ;   _timer0_pwm_set_high_feq
                                           ;   _adc_update_bat_adc_val
                                           ;   _adc_update_current_adc_val
                                           ;   __mullong
                                           ;   __divulong
                                           ;   __mullong
                                           ;   __mullong
                                           ;   __divulong
                                           ;   __mulint
                                           ;   __divuint
                                           ;19 compiler assigned registers:
                                           ;   r0x102D
                                           ;   r0x102E
                                           ;   r0x102F
                                           ;   r0x1030
                                           ;   r0x1031
                                           ;   r0x1032
                                           ;   STK06
                                           ;   STK05
                                           ;   STK04
                                           ;   STK03
                                           ;   STK02
                                           ;   STK01
                                           ;   STK00
                                           ;   r0x1033
                                           ;   r0x1034
                                           ;   r0x1035
                                           ;   r0x1036
                                           ;   r0x1037
                                           ;   r0x1038
                                           ;; Starting pCode block
                                           _charge_handle	;Function start
                                           ; 2 exit points
                                           ;	.line	482; "MC32F7361.c"	if (flag_is_charging_adjust_time_come) // 
0001ad   e680     jbset   0x80, 0x3        	JBSET	_flag1,3
0001ae   a37b     goto    0x37b            	GOTO	_00313_DS_
                                           ;	.line	496; "MC32F7361.c"	flag_is_charging_adjust_time_come = 0; // 
0001af   d680     bclr    0x80, 0x3        	BCLR	_flag1,3
                                           ;	.line	499; "MC32F7361.c"	if (CUR_CHARGE_PHASE_NONE == cur_charge_phase)
0001b0   3c00     movai   0                	MOVAI	0x00
0001b1   5c84     orar    0x84             	ORAR	_cur_charge_phase
0001b2   e587     jbset   0x187, 0x2       	JBSET	PFLAG,2
0001b3   a1c5     goto    0x1c5            	GOTO	_00261_DS_
                                           ;	.line	501; "MC32F7361.c"	adc_update_charge_adc_val(ADC_REF_2_0_VOL);
0001b4   3c00     movai   0                	MOVAI	0x00
0001b5   8391     call    0x391            	CALL	_adc_update_charge_adc_val
                                           ;;unsigned compare: left < lit(0x390=912), size=2
                                           ;	.line	504; "MC32F7361.c"	if (charging_adc_val >= (u16)((u32)4900 * 4096 / 11 / 2 / 1000))
0001b6   3c03     movai   0x3              	MOVAI	0x03
0001b7   4873     rsubar  0x73             	RSUBAR	(_charging_adc_val + 1)
0001b8   e587     jbset   0x187, 0x2       	JBSET	PFLAG,2
0001b9   a1bc     goto    0x1bc            	GOTO	_00431_DS_
0001ba   3c90     movai   0x90             	MOVAI	0x90
0001bb   4872     rsubar  0x72             	RSUBAR	_charging_adc_val
                                           _00431_DS_
0001bc   e187     jbset   0x187, 0         	JBSET	PFLAG,0
0001bd   a1c0     goto    0x1c0            	GOTO	_00251_DS_
                                           ;;genSkipc:3291: created from rifx:013B5EFC
                                           ;	.line	506; "MC32F7361.c"	cur_charge_phase = CUR_CHARGE_PHASE_TRICKLE_CHARGE; // 
0001be   3c01     movai   0x1              	MOVAI	0x01
0001bf   5684     movra   0x84             	MOVRA	_cur_charge_phase
                                           _00251_DS_
                                           ;	.line	510; "MC32F7361.c"	if (CUR_CHARGE_PHASE_NONE == cur_charge_phase)
0001c0   3c00     movai   0                	MOVAI	0x00
0001c1   5c84     orar    0x84             	ORAR	_cur_charge_phase
0001c2   e587     jbset   0x187, 0x2       	JBSET	PFLAG,2
0001c3   a1e3     goto    0x1e3            	GOTO	_00262_DS_
                                           ;	.line	512; "MC32F7361.c"	return;
0001c4   a37b     goto    0x37b            	GOTO	_00313_DS_
                                           _00261_DS_
                                           ;	.line	518; "MC32F7361.c"	adc_update_charge_adc_val(ADC_REF_3_0_VOL);
0001c5   3c01     movai   0x1              	MOVAI	0x01
0001c6   8391     call    0x391            	CALL	_adc_update_charge_adc_val
                                           ;;unsigned compare: left < lit(0xD93=3475), size=2
                                           ;	.line	522; "MC32F7361.c"	if (charging_adc_val >= (u16)((u32)28000 * 4096 / 11 / 3 / 1000)) //  xx V
0001c7   3c0d     movai   0xd              	MOVAI	0x0d
0001c8   4873     rsubar  0x73             	RSUBAR	(_charging_adc_val + 1)
0001c9   e587     jbset   0x187, 0x2       	JBSET	PFLAG,2
0001ca   a1cd     goto    0x1cd            	GOTO	_00432_DS_
0001cb   3c93     movai   0x93             	MOVAI	0x93
0001cc   4872     rsubar  0x72             	RSUBAR	_charging_adc_val
                                           _00432_DS_
0001cd   e187     jbset   0x187, 0         	JBSET	PFLAG,0
0001ce   a1d1     goto    0x1d1            	GOTO	_00255_DS_
                                           ;;genSkipc:3291: created from rifx:013B5EFC
                                           ;	.line	527; "MC32F7361.c"	PWM_CTL_FOR_CHARGING_DUTY_REG = 0;
0001cf   779b     clrr    0x19b            	CLRR	_T0DATA
                                           ;	.line	528; "MC32F7361.c"	return;
0001d0   a37b     goto    0x37b            	GOTO	_00313_DS_
                                           ;;swapping arguments (AOP_TYPEs 1/3)
                                           ;;unsigned compare: left >= lit(0x1F1=497), size=2
                                           _00255_DS_
                                           ;	.line	532; "MC32F7361.c"	if (charging_adc_val <= (u16)((u32)4000 * 4096 / 11 / 3 / 1000))
0001d1   3c01     movai   0x1              	MOVAI	0x01
0001d2   4873     rsubar  0x73             	RSUBAR	(_charging_adc_val + 1)
0001d3   e587     jbset   0x187, 0x2       	JBSET	PFLAG,2
0001d4   a1d7     goto    0x1d7            	GOTO	_00433_DS_
0001d5   3cf1     movai   0xf1             	MOVAI	0xf1
0001d6   4872     rsubar  0x72             	RSUBAR	_charging_adc_val
                                           _00433_DS_
0001d7   f187     jbclr   0x187, 0         	JBCLR	PFLAG,0
0001d8   a1de     goto    0x1de            	GOTO	_00257_DS_
                                           ;;genSkipc:3291: created from rifx:013B5EFC
                                           ;	.line	538; "MC32F7361.c"	PWM_CTL_FOR_CHARGING_DUTY_REG = 0;
0001d9   779b     clrr    0x19b            	CLRR	_T0DATA
                                           ;	.line	539; "MC32F7361.c"	PWM_CTL_FOR_CHARGING_DISABLE();
0001da   8484     call    0x484            	CALL	_timer0_pwm_disable
                                           ;	.line	541; "MC32F7361.c"	cur_charge_phase = CUR_CHARGE_PHASE_NONE;
0001db   7684     clrr    0x84             	CLRR	_cur_charge_phase
                                           ;	.line	542; "MC32F7361.c"	cur_charging_pwm_status = CUR_CHARGING_PWM_STATUS_NONE;
0001dc   7683     clrr    0x83             	CLRR	_cur_charging_pwm_status
                                           ;	.line	543; "MC32F7361.c"	return;
0001dd   a37b     goto    0x37b            	GOTO	_00313_DS_
                                           _00257_DS_
                                           ;	.line	547; "MC32F7361.c"	if (CUR_CHARGE_PHASE_FULLY_CHARGE == cur_charge_phase)
0001de   5884     movar   0x84             	MOVAR	_cur_charge_phase
0001df   3904     xorai   0x4              	XORAI	0x04
0001e0   e587     jbset   0x187, 0x2       	JBSET	PFLAG,2
0001e1   a1e3     goto    0x1e3            	GOTO	_00262_DS_
                                           ;	.line	549; "MC32F7361.c"	return;
0001e2   a37b     goto    0x37b            	GOTO	_00313_DS_
                                           _00262_DS_
                                           ;	.line	556; "MC32F7361.c"	adc_update_bat_adc_val();
0001e3   839b     call    0x39b            	CALL	_adc_update_bat_adc_val
                                           ;	.line	559; "MC32F7361.c"	if (CUR_CHARGE_PHASE_TRICKLE_CHARGE == cur_charge_phase)
0001e4   5884     movar   0x84             	MOVAR	_cur_charge_phase
0001e5   3901     xorai   0x1              	XORAI	0x01
0001e6   e587     jbset   0x187, 0x2       	JBSET	PFLAG,2
0001e7   a1fb     goto    0x1fb            	GOTO	_00268_DS_
                                           ;;swapping arguments (AOP_TYPEs 1/3)
                                           ;;unsigned compare: left >= lit(0xACD=2765), size=2
                                           ;	.line	562; "MC32F7361.c"	if (bat_adc_val <= (u16)((u32)2700 * 4096 / 2 / 2 / 1000))
0001e8   3c0a     movai   0xa              	MOVAI	0x0a
0001e9   4871     rsubar  0x71             	RSUBAR	(_bat_adc_val + 1)
0001ea   e587     jbset   0x187, 0x2       	JBSET	PFLAG,2
0001eb   a1ee     goto    0x1ee            	GOTO	_00434_DS_
0001ec   3ccd     movai   0xcd             	MOVAI	0xcd
0001ed   4870     rsubar  0x70             	RSUBAR	_bat_adc_val
                                           _00434_DS_
0001ee   f187     jbclr   0x187, 0         	JBCLR	PFLAG,0
0001ef   a1f9     goto    0x1f9            	GOTO	_00266_DS_
                                           ;;genSkipc:3291: created from rifx:013B5EFC
                                           ;	.line	564; "MC32F7361.c"	if (CUR_CHARGING_PWM_STATUS_LOW_FEQ != cur_charging_pwm_status)
0001f0   5883     movar   0x83             	MOVAR	_cur_charging_pwm_status
0001f1   3901     xorai   0x1              	XORAI	0x01
0001f2   e587     jbset   0x187, 0x2       	JBSET	PFLAG,2
0001f3   a1f5     goto    0x1f5            	GOTO	_00435_DS_
0001f4   a1f8     goto    0x1f8            	GOTO	_00264_DS_
                                           _00435_DS_
                                           ;	.line	566; "MC32F7361.c"	PWM_CTL_FOR_CHARGING_SET_LOW_FEQ(); // 20KHz
0001f5   848f     call    0x48f            	CALL	_timer0_pwm_set_low_feq
                                           ;	.line	567; "MC32F7361.c"	cur_charging_pwm_status = CUR_CHARGING_PWM_STATUS_LOW_FEQ;
0001f6   3c01     movai   0x1              	MOVAI	0x01
0001f7   5683     movra   0x83             	MOVRA	_cur_charging_pwm_status
                                           _00264_DS_
                                           ;	.line	570; "MC32F7361.c"	return;
0001f8   a37b     goto    0x37b            	GOTO	_00313_DS_
                                           _00266_DS_
                                           ;	.line	574; "MC32F7361.c"	cur_charge_phase = CUR_CHARGE_PHASE_NORMAL_CHARGE;
0001f9   3c02     movai   0x2              	MOVAI	0x02
0001fa   5684     movra   0x84             	MOVRA	_cur_charge_phase
                                           ;;unsigned compare: left < lit(0xE47=3655), size=2
                                           _00268_DS_
                                           ;	.line	581; "MC32F7361.c"	if ((bat_adc_val >= (u16)((u32)(3500 + 50 + 20) * 4096 / 2 / 2 / 1000)) && /* xxx  3.53V1.793V*/
0001fb   3c0e     movai   0xe              	MOVAI	0x0e
0001fc   4871     rsubar  0x71             	RSUBAR	(_bat_adc_val + 1)
0001fd   e587     jbset   0x187, 0x2       	JBSET	PFLAG,2
0001fe   a201     goto    0x201            	GOTO	_00436_DS_
0001ff   3c47     movai   0x47             	MOVAI	0x47
000200   4870     rsubar  0x70             	RSUBAR	_bat_adc_val
                                           _00436_DS_
000201   e187     jbset   0x187, 0         	JBSET	PFLAG,0
000202   a221     goto    0x221            	GOTO	_00276_DS_
                                           ;;genSkipc:3291: created from rifx:013B5EFC
                                           ;	.line	582; "MC32F7361.c"	(CUR_CHARGE_PHASE_TRICKLE_CHARGE_WHEN_APPROACH_FULLY_CHARGE != cur_charge_phase))
000203   5884     movar   0x84             	MOVAR	_cur_charge_phase
000204   3903     xorai   0x3              	XORAI	0x03
000205   e587     jbset   0x187, 0x2       	JBSET	PFLAG,2
000206   a208     goto    0x208            	GOTO	_00437_DS_
000207   a221     goto    0x221            	GOTO	_00276_DS_
                                           _00437_DS_
                                           ;	.line	584; "MC32F7361.c"	trickle_charge_cnt++;
000208   662f     incr    0x2f             	INCR	_charge_handle_trickle_charge_cnt_131072_59
                                           ;;swapping arguments (AOP_TYPEs 1/3)
                                           ;;unsigned compare: left >= lit(0x6=6), size=1
                                           ;	.line	586; "MC32F7361.c"	if (pwm_duty > MIN_PWM_DUTY_IN_TRICKLE_CHARGE)
000209   3c06     movai   0x6              	MOVAI	0x06
00020a   4830     rsubar  0x30             	RSUBAR	_charge_handle_pwm_duty_131072_59
00020b   e187     jbset   0x187, 0         	JBSET	PFLAG,0
00020c   a212     goto    0x212            	GOTO	_00270_DS_
                                           ;;genSkipc:3291: created from rifx:013B5EFC
                                           ;	.line	589; "MC32F7361.c"	pwm_duty -= 2;
00020d   5830     movar   0x30             	MOVAR	_charge_handle_pwm_duty_131072_59
00020e   5617     movra   0x17             	MOVRA	r0x102D
00020f   3cfe     movai   0xfe             	MOVAI	0xfe
000210   7c17     addar   0x17             	ADDAR	r0x102D
000211   5630     movra   0x30             	MOVRA	_charge_handle_pwm_duty_131072_59
                                           ;;unsigned compare: left < lit(0xA=10), size=1
                                           _00270_DS_
                                           ;	.line	593; "MC32F7361.c"	if (pwm_duty < 10)
000212   3c0a     movai   0xa              	MOVAI	0x0a
000213   4830     rsubar  0x30             	RSUBAR	_charge_handle_pwm_duty_131072_59
000214   f187     jbclr   0x187, 0         	JBCLR	PFLAG,0
000215   a217     goto    0x217            	GOTO	_00272_DS_
                                           ;;genSkipc:3291: created from rifx:013B5EFC
                                           ;	.line	595; "MC32F7361.c"	trickle_charge_cnt++;
000216   662f     incr    0x2f             	INCR	_charge_handle_trickle_charge_cnt_131072_59
                                           ;;unsigned compare: left < lit(0x64=100), size=1
                                           _00272_DS_
                                           ;	.line	598; "MC32F7361.c"	if (trickle_charge_cnt >= 100)
000217   3c64     movai   0x64             	MOVAI	0x64
000218   482f     rsubar  0x2f             	RSUBAR	_charge_handle_trickle_charge_cnt_131072_59
000219   e187     jbset   0x187, 0         	JBSET	PFLAG,0
00021a   a222     goto    0x222            	GOTO	_00277_DS_
                                           ;;genSkipc:3291: created from rifx:013B5EFC
                                           ;	.line	600; "MC32F7361.c"	trickle_charge_cnt = 0;
00021b   762f     clrr    0x2f             	CLRR	_charge_handle_trickle_charge_cnt_131072_59
                                           ;	.line	609; "MC32F7361.c"	PWM_CTL_FOR_CHARGING_DUTY_REG = (u8)((u16)MIN_PWM_DUTY_IN_TRICKLE_CHARGE * (u16)PWM_CTL_FOR_CHARGING_HIGH_FEQ_VAL / 100);
00021c   3c08     movai   0x8              	MOVAI	0x08
00021d   579b     movra   0x19b            	MOVRA	_T0DATA
                                           ;	.line	610; "MC32F7361.c"	cur_charge_phase = CUR_CHARGE_PHASE_TRICKLE_CHARGE_WHEN_APPROACH_FULLY_CHARGE;
00021e   3c03     movai   0x3              	MOVAI	0x03
00021f   5684     movra   0x84             	MOVRA	_cur_charge_phase
000220   a222     goto    0x222            	GOTO	_00277_DS_
                                           _00276_DS_
                                           ;	.line	615; "MC32F7361.c"	trickle_charge_cnt = 0;
000221   762f     clrr    0x2f             	CLRR	_charge_handle_trickle_charge_cnt_131072_59
                                           _00277_DS_
                                           ;	.line	619; "MC32F7361.c"	if (CUR_CHARGE_PHASE_TRICKLE_CHARGE_WHEN_APPROACH_FULLY_CHARGE == cur_charge_phase)
000222   5884     movar   0x84             	MOVAR	_cur_charge_phase
000223   3903     xorai   0x3              	XORAI	0x03
000224   e587     jbset   0x187, 0x2       	JBSET	PFLAG,2
000225   a235     goto    0x235            	GOTO	_00282_DS_
                                           ;;unsigned compare: left < lit(0xE99=3737), size=2
                                           ;	.line	621; "MC32F7361.c"	if (bat_adc_val >= (u16)((u32)(3600 + 50) * 4096 / 2 / 2 / 1000))
000226   3c0e     movai   0xe              	MOVAI	0x0e
000227   4871     rsubar  0x71             	RSUBAR	(_bat_adc_val + 1)
000228   e587     jbset   0x187, 0x2       	JBSET	PFLAG,2
000229   a22c     goto    0x22c            	GOTO	_00441_DS_
00022a   3c99     movai   0x99             	MOVAI	0x99
00022b   4870     rsubar  0x70             	RSUBAR	_bat_adc_val
                                           _00441_DS_
00022c   e187     jbset   0x187, 0         	JBSET	PFLAG,0
00022d   a234     goto    0x234            	GOTO	_00280_DS_
                                           ;;genSkipc:3291: created from rifx:013B5EFC
                                           ;	.line	629; "MC32F7361.c"	PWM_CTL_FOR_CHARGING_DUTY_REG = 0;
00022e   779b     clrr    0x19b            	CLRR	_T0DATA
                                           ;	.line	630; "MC32F7361.c"	PWM_CTL_FOR_CHARGING_DISABLE(); // PWM
00022f   8484     call    0x484            	CALL	_timer0_pwm_disable
                                           ;	.line	632; "MC32F7361.c"	cur_charge_phase = CUR_CHARGE_PHASE_FULLY_CHARGE; // 4.0V
000230   3c04     movai   0x4              	MOVAI	0x04
000231   5684     movra   0x84             	MOVRA	_cur_charge_phase
                                           ;	.line	633; "MC32F7361.c"	cur_charging_pwm_status = CUR_CHARGING_PWM_STATUS_NONE;
000232   7683     clrr    0x83             	CLRR	_cur_charging_pwm_status
                                           ;	.line	634; "MC32F7361.c"	return;
000233   a37b     goto    0x37b            	GOTO	_00313_DS_
                                           _00280_DS_
                                           ;	.line	637; "MC32F7361.c"	return;
000234   a37b     goto    0x37b            	GOTO	_00313_DS_
                                           _00282_DS_
                                           ;	.line	645; "MC32F7361.c"	if (CUR_CHARGE_PHASE_NORMAL_CHARGE != cur_charge_phase)
000235   5884     movar   0x84             	MOVAR	_cur_charge_phase
000236   3902     xorai   0x2              	XORAI	0x02
000237   e587     jbset   0x187, 0x2       	JBSET	PFLAG,2
000238   a23a     goto    0x23a            	GOTO	_00442_DS_
000239   a23b     goto    0x23b            	GOTO	_00284_DS_
                                           _00442_DS_
                                           ;	.line	647; "MC32F7361.c"	return;
00023a   a37b     goto    0x37b            	GOTO	_00313_DS_
                                           _00284_DS_
                                           ;	.line	651; "MC32F7361.c"	if (CUR_CHARGING_PWM_STATUS_HIGH_FRQ != cur_charging_pwm_status)
00023b   5883     movar   0x83             	MOVAR	_cur_charging_pwm_status
00023c   3902     xorai   0x2              	XORAI	0x02
00023d   e587     jbset   0x187, 0x2       	JBSET	PFLAG,2
00023e   a240     goto    0x240            	GOTO	_00443_DS_
00023f   a243     goto    0x243            	GOTO	_00286_DS_
                                           _00443_DS_
                                           ;	.line	659; "MC32F7361.c"	PWM_CTL_FOR_CHARGING_SET_HIGH_FEQ();
000240   8488     call    0x488            	CALL	_timer0_pwm_set_high_feq
                                           ;	.line	660; "MC32F7361.c"	cur_charging_pwm_status = CUR_CHARGING_PWM_STATUS_HIGH_FRQ;
000241   3c02     movai   0x2              	MOVAI	0x02
000242   5683     movra   0x83             	MOVRA	_cur_charging_pwm_status
                                           _00286_DS_
                                           ;	.line	663; "MC32F7361.c"	adc_update_bat_adc_val();
000243   839b     call    0x39b            	CALL	_adc_update_bat_adc_val
                                           ;;unsigned compare: left < lit(0xE33=3635), size=2
                                           ;	.line	668; "MC32F7361.c"	if (bat_adc_val >= (u16)((u32)(3500 + 50) * 4096 / 2 / 2 / 1000)) //
000244   3c0e     movai   0xe              	MOVAI	0x0e
000245   4871     rsubar  0x71             	RSUBAR	(_bat_adc_val + 1)
000246   e587     jbset   0x187, 0x2       	JBSET	PFLAG,2
000247   a24a     goto    0x24a            	GOTO	_00444_DS_
000248   3c33     movai   0x33             	MOVAI	0x33
000249   4870     rsubar  0x70             	RSUBAR	_bat_adc_val
                                           _00444_DS_
00024a   e187     jbset   0x187, 0         	JBSET	PFLAG,0
00024b   a251     goto    0x251            	GOTO	_00291_DS_
                                           ;;genSkipc:3291: created from rifx:013B5EFC
                                           ;	.line	672; "MC32F7361.c"	expected_power = (u16)5000; // 1h0.01V~0.02V
00024c   3c88     movai   0x88             	MOVAI	0x88
00024d   5617     movra   0x17             	MOVRA	r0x102D
00024e   3c13     movai   0x13             	MOVAI	0x13
00024f   5618     movra   0x18             	MOVRA	r0x102E
000250   a262     goto    0x262            	GOTO	_00292_DS_
                                           ;;unsigned compare: left < lit(0xD99=3481), size=2
                                           _00291_DS_
                                           ;	.line	674; "MC32F7361.c"	else if (bat_adc_val >= (u16)((u32)(3400) * 4096 / 2 / 2 / 1000)) //
000251   3c0d     movai   0xd              	MOVAI	0x0d
000252   4871     rsubar  0x71             	RSUBAR	(_bat_adc_val + 1)
000253   e587     jbset   0x187, 0x2       	JBSET	PFLAG,2
000254   a257     goto    0x257            	GOTO	_00445_DS_
000255   3c99     movai   0x99             	MOVAI	0x99
000256   4870     rsubar  0x70             	RSUBAR	_bat_adc_val
                                           _00445_DS_
000257   e187     jbset   0x187, 0         	JBSET	PFLAG,0
000258   a25e     goto    0x25e            	GOTO	_00288_DS_
                                           ;;genSkipc:3291: created from rifx:013B5EFC
                                           ;	.line	676; "MC32F7361.c"	expected_power = (u16)26500 / 2;
000259   3cc2     movai   0xc2             	MOVAI	0xc2
00025a   5617     movra   0x17             	MOVRA	r0x102D
00025b   3c33     movai   0x33             	MOVAI	0x33
00025c   5618     movra   0x18             	MOVRA	r0x102E
00025d   a262     goto    0x262            	GOTO	_00292_DS_
                                           _00288_DS_
                                           ;	.line	680; "MC32F7361.c"	expected_power = (u16)26500;
00025e   3c84     movai   0x84             	MOVAI	0x84
00025f   5617     movra   0x17             	MOVRA	r0x102D
000260   3c67     movai   0x67             	MOVAI	0x67
000261   5618     movra   0x18             	MOVRA	r0x102E
                                           _00292_DS_
                                           ;	.line	683; "MC32F7361.c"	adc_update_current_adc_val();
000262   8388     call    0x388            	CALL	_adc_update_current_adc_val
                                           ;	.line	699; "MC32F7361.c"	current = (u16)((u32)current_adc_val * 3 * 1000 * (1000 / 5) / 4096 / 76); // mA
000263   5874     movar   0x74             	MOVAR	_current_adc_val
000264   5619     movra   0x19             	MOVRA	r0x102F
000265   5875     movar   0x75             	MOVAR	(_current_adc_val + 1)
000266   561a     movra   0x1a             	MOVRA	r0x1030
000267   761b     clrr    0x1b             	CLRR	r0x1031
000268   761c     clrr    0x1c             	CLRR	r0x1032
000269   5819     movar   0x19             	MOVAR	r0x102F
00026a   5600     movra   0                	MOVRA	STK06
00026b   581a     movar   0x1a             	MOVAR	r0x1030
00026c   5601     movra   0x1              	MOVRA	STK05
00026d   3c00     movai   0                	MOVAI	0x00
00026e   5602     movra   0x2              	MOVRA	STK04
00026f   3c00     movai   0                	MOVAI	0x00
000270   5603     movra   0x3              	MOVRA	STK03
000271   3cc0     movai   0xc0             	MOVAI	0xc0
000272   5604     movra   0x4              	MOVRA	STK02
000273   3c27     movai   0x27             	MOVAI	0x27
000274   5605     movra   0x5              	MOVRA	STK01
000275   3c00     movai   0                	MOVAI	0x00
000276   5606     movra   0x6              	MOVRA	STK00
000277   3c00     movai   0                	MOVAI	0x00
000278   84d6     call    0x4d6            	CALL	__mullong
000279   561c     movra   0x1c             	MOVRA	r0x1032
00027a   5806     movar   0x6              	MOVAR	STK00
00027b   561b     movra   0x1b             	MOVRA	r0x1031
00027c   5805     movar   0x5              	MOVAR	STK01
00027d   561a     movra   0x1a             	MOVRA	r0x1030
00027e   5804     movar   0x4              	MOVAR	STK02
00027f   5619     movra   0x19             	MOVRA	r0x102F
000280   441a     swapar  0x1a             	SWAPAR	r0x1030
000281   3e0f     andai   0xf              	ANDAI	0x0f
000282   561d     movra   0x1d             	MOVRA	r0x1033
000283   441b     swapar  0x1b             	SWAPAR	r0x1031
000284   561e     movra   0x1e             	MOVRA	r0x1034
000285   3ef0     andai   0xf0             	ANDAI	0xf0
000286   5e1d     orra    0x1d             	ORRA	r0x1033
000287   421e     xorra   0x1e             	XORRA	r0x1034
000288   441c     swapar  0x1c             	SWAPAR	r0x1032
000289   561f     movra   0x1f             	MOVRA	r0x1035
00028a   3ef0     andai   0xf0             	ANDAI	0xf0
00028b   5e1e     orra    0x1e             	ORRA	r0x1034
00028c   421f     xorra   0x1f             	XORRA	r0x1035
00028d   7620     clrr    0x20             	CLRR	r0x1036
00028e   3c4c     movai   0x4c             	MOVAI	0x4c
00028f   5600     movra   0                	MOVRA	STK06
000290   3c00     movai   0                	MOVAI	0x00
000291   5601     movra   0x1              	MOVRA	STK05
000292   3c00     movai   0                	MOVAI	0x00
000293   5602     movra   0x2              	MOVRA	STK04
000294   3c00     movai   0                	MOVAI	0x00
000295   5603     movra   0x3              	MOVRA	STK03
000296   581d     movar   0x1d             	MOVAR	r0x1033
000297   5604     movra   0x4              	MOVRA	STK02
000298   581e     movar   0x1e             	MOVAR	r0x1034
000299   5605     movra   0x5              	MOVRA	STK01
00029a   581f     movar   0x1f             	MOVAR	r0x1035
00029b   5606     movra   0x6              	MOVRA	STK00
00029c   3c00     movai   0                	MOVAI	0x00
00029d   8561     call    0x561            	CALL	__divulong
00029e   561c     movra   0x1c             	MOVRA	r0x1032
00029f   5806     movar   0x6              	MOVAR	STK00
0002a0   561b     movra   0x1b             	MOVRA	r0x1031
0002a1   5805     movar   0x5              	MOVAR	STK01
0002a2   561e     movra   0x1e             	MOVRA	r0x1034
0002a3   561a     movra   0x1a             	MOVRA	r0x1030
0002a4   5804     movar   0x4              	MOVAR	STK02
0002a5   561d     movra   0x1d             	MOVRA	r0x1033
0002a6   5619     movra   0x19             	MOVRA	r0x102F
                                           ;;122	MOVAR	r0x102F
                                           ;;123	MOVAR	r0x1030
                                           ;	.line	705; "MC32F7361.c"	voltage_of_bat = (u16)((u32)bat_adc_val * 2 * 1000 * 2 / 4096); // mV
0002a7   5870     movar   0x70             	MOVAR	_bat_adc_val
0002a8   5619     movra   0x19             	MOVRA	r0x102F
0002a9   5871     movar   0x71             	MOVAR	(_bat_adc_val + 1)
0002aa   561a     movra   0x1a             	MOVRA	r0x1030
0002ab   761b     clrr    0x1b             	CLRR	r0x1031
0002ac   761c     clrr    0x1c             	CLRR	r0x1032
0002ad   5819     movar   0x19             	MOVAR	r0x102F
0002ae   5600     movra   0                	MOVRA	STK06
0002af   581a     movar   0x1a             	MOVAR	r0x1030
0002b0   5601     movra   0x1              	MOVRA	STK05
0002b1   3c00     movai   0                	MOVAI	0x00
0002b2   5602     movra   0x2              	MOVRA	STK04
0002b3   3c00     movai   0                	MOVAI	0x00
0002b4   5603     movra   0x3              	MOVRA	STK03
0002b5   3ca0     movai   0xa0             	MOVAI	0xa0
0002b6   5604     movra   0x4              	MOVRA	STK02
0002b7   3c0f     movai   0xf              	MOVAI	0x0f
0002b8   5605     movra   0x5              	MOVRA	STK01
0002b9   3c00     movai   0                	MOVAI	0x00
0002ba   5606     movra   0x6              	MOVRA	STK00
0002bb   3c00     movai   0                	MOVAI	0x00
0002bc   84d6     call    0x4d6            	CALL	__mullong
0002bd   561c     movra   0x1c             	MOVRA	r0x1032
0002be   5806     movar   0x6              	MOVAR	STK00
0002bf   561b     movra   0x1b             	MOVRA	r0x1031
0002c0   5805     movar   0x5              	MOVAR	STK01
0002c1   561a     movra   0x1a             	MOVRA	r0x1030
0002c2   5804     movar   0x4              	MOVAR	STK02
0002c3   5619     movra   0x19             	MOVRA	r0x102F
0002c4   441a     swapar  0x1a             	SWAPAR	r0x1030
0002c5   3e0f     andai   0xf              	ANDAI	0x0f
0002c6   561f     movra   0x1f             	MOVRA	r0x1035
0002c7   441b     swapar  0x1b             	SWAPAR	r0x1031
0002c8   5620     movra   0x20             	MOVRA	r0x1036
0002c9   3ef0     andai   0xf0             	ANDAI	0xf0
0002ca   5e1f     orra    0x1f             	ORRA	r0x1035
0002cb   4220     xorra   0x20             	XORRA	r0x1036
0002cc   441c     swapar  0x1c             	SWAPAR	r0x1032
0002cd   5621     movra   0x21             	MOVRA	r0x1037
0002ce   3ef0     andai   0xf0             	ANDAI	0xf0
0002cf   5e20     orra    0x20             	ORRA	r0x1036
0002d0   4221     xorra   0x21             	XORRA	r0x1037
0002d1   7622     clrr    0x22             	CLRR	r0x1038
0002d2   581f     movar   0x1f             	MOVAR	r0x1035
0002d3   5619     movra   0x19             	MOVRA	r0x102F
0002d4   5820     movar   0x20             	MOVAR	r0x1036
0002d5   561a     movra   0x1a             	MOVRA	r0x1030
                                           ;;unsigned compare: left < lit(0xFFF=4095), size=2
                                           ;	.line	708; "MC32F7361.c"	if (current_adc_val >= 4095)
0002d6   3c0f     movai   0xf              	MOVAI	0x0f
0002d7   4875     rsubar  0x75             	RSUBAR	(_current_adc_val + 1)
0002d8   e587     jbset   0x187, 0x2       	JBSET	PFLAG,2
0002d9   a2dc     goto    0x2dc            	GOTO	_00446_DS_
0002da   3cff     movai   0xff             	MOVAI	0xff
0002db   4874     rsubar  0x74             	RSUBAR	_current_adc_val
                                           _00446_DS_
0002dc   e187     jbset   0x187, 0         	JBSET	PFLAG,0
0002dd   a2e4     goto    0x2e4            	GOTO	_00309_DS_
                                           ;;genSkipc:3291: created from rifx:013B5EFC
                                           ;	.line	712; "MC32F7361.c"	if (pwm_duty > 0)
0002de   3c00     movai   0                	MOVAI	0x00
0002df   5c30     orar    0x30             	ORAR	_charge_handle_pwm_duty_131072_59
0002e0   f587     jbclr   0x187, 0x2       	JBCLR	PFLAG,2
0002e1   a361     goto    0x361            	GOTO	_00310_DS_
                                           ;	.line	714; "MC32F7361.c"	pwm_duty--;
0002e2   6e30     decr    0x30             	DECR	_charge_handle_pwm_duty_131072_59
0002e3   a361     goto    0x361            	GOTO	_00310_DS_
                                           _00309_DS_
                                           ;	.line	721; "MC32F7361.c"	if (expected_power != 26500)
0002e4   5817     movar   0x17             	MOVAR	r0x102D
0002e5   3984     xorai   0x84             	XORAI	0x84
0002e6   e587     jbset   0x187, 0x2       	JBSET	PFLAG,2
0002e7   a2ed     goto    0x2ed            	GOTO	_00447_DS_
0002e8   5818     movar   0x18             	MOVAR	r0x102E
0002e9   3967     xorai   0x67             	XORAI	0x67
0002ea   e587     jbset   0x187, 0x2       	JBSET	PFLAG,2
0002eb   a2ed     goto    0x2ed            	GOTO	_00447_DS_
0002ec   a2f8     goto    0x2f8            	GOTO	_00298_DS_
                                           ;;unsigned compare: left < lit(0x77C=1916), size=2
                                           _00447_DS_
                                           ;	.line	724; "MC32F7361.c"	if (current < 1916)
0002ed   3c07     movai   0x7              	MOVAI	0x07
0002ee   481e     rsubar  0x1e             	RSUBAR	r0x1034
0002ef   e587     jbset   0x187, 0x2       	JBSET	PFLAG,2
0002f0   a2f3     goto    0x2f3            	GOTO	_00448_DS_
0002f1   3c7c     movai   0x7c             	MOVAI	0x7c
0002f2   481d     rsubar  0x1d             	RSUBAR	r0x1033
                                           _00448_DS_
0002f3   f187     jbclr   0x187, 0         	JBCLR	PFLAG,0
0002f4   a2f8     goto    0x2f8            	GOTO	_00298_DS_
                                           ;;genSkipc:3291: created from rifx:013B5EFC
                                           ;	.line	726; "MC32F7361.c"	current = 1;
0002f5   3c01     movai   0x1              	MOVAI	0x01
0002f6   561d     movra   0x1d             	MOVRA	r0x1033
0002f7   761e     clrr    0x1e             	CLRR	r0x1034
                                           _00298_DS_
                                           ;	.line	730; "MC32F7361.c"	power = (u32)voltage_of_bat * current / 1000; // 
0002f8   5819     movar   0x19             	MOVAR	r0x102F
0002f9   561b     movra   0x1b             	MOVRA	r0x1031
0002fa   581a     movar   0x1a             	MOVAR	r0x1030
0002fb   561c     movra   0x1c             	MOVRA	r0x1032
0002fc   761f     clrr    0x1f             	CLRR	r0x1035
0002fd   7620     clrr    0x20             	CLRR	r0x1036
                                           ;;116	MOVAR	r0x1033
                                           ;;118	MOVAR	r0x1034
0002fe   7621     clrr    0x21             	CLRR	r0x1037
0002ff   7622     clrr    0x22             	CLRR	r0x1038
                                           ;;115	MOVAR	r0x102F
000300   581d     movar   0x1d             	MOVAR	r0x1033
000301   5619     movra   0x19             	MOVRA	r0x102F
000302   5600     movra   0                	MOVRA	STK06
                                           ;;117	MOVAR	r0x1030
000303   581e     movar   0x1e             	MOVAR	r0x1034
000304   561a     movra   0x1a             	MOVRA	r0x1030
000305   5601     movra   0x1              	MOVRA	STK05
000306   3c00     movai   0                	MOVAI	0x00
000307   5602     movra   0x2              	MOVRA	STK04
000308   3c00     movai   0                	MOVAI	0x00
000309   5603     movra   0x3              	MOVRA	STK03
00030a   581b     movar   0x1b             	MOVAR	r0x1031
00030b   5604     movra   0x4              	MOVRA	STK02
00030c   581c     movar   0x1c             	MOVAR	r0x1032
00030d   5605     movra   0x5              	MOVRA	STK01
00030e   3c00     movai   0                	MOVAI	0x00
00030f   5606     movra   0x6              	MOVRA	STK00
000310   3c00     movai   0                	MOVAI	0x00
000311   84d6     call    0x4d6            	CALL	__mullong
000312   561c     movra   0x1c             	MOVRA	r0x1032
000313   5806     movar   0x6              	MOVAR	STK00
000314   561b     movra   0x1b             	MOVRA	r0x1031
000315   5805     movar   0x5              	MOVAR	STK01
000316   561a     movra   0x1a             	MOVRA	r0x1030
000317   5804     movar   0x4              	MOVAR	STK02
000318   5619     movra   0x19             	MOVRA	r0x102F
000319   3ce8     movai   0xe8             	MOVAI	0xe8
00031a   5600     movra   0                	MOVRA	STK06
00031b   3c03     movai   0x3              	MOVAI	0x03
00031c   5601     movra   0x1              	MOVRA	STK05
00031d   3c00     movai   0                	MOVAI	0x00
00031e   5602     movra   0x2              	MOVRA	STK04
00031f   3c00     movai   0                	MOVAI	0x00
000320   5603     movra   0x3              	MOVRA	STK03
000321   5819     movar   0x19             	MOVAR	r0x102F
000322   5604     movra   0x4              	MOVRA	STK02
000323   581a     movar   0x1a             	MOVAR	r0x1030
000324   5605     movra   0x5              	MOVRA	STK01
000325   581b     movar   0x1b             	MOVAR	r0x1031
000326   5606     movra   0x6              	MOVRA	STK00
000327   581c     movar   0x1c             	MOVAR	r0x1032
000328   8561     call    0x561            	CALL	__divulong
000329   561c     movra   0x1c             	MOVRA	r0x1032
00032a   5806     movar   0x6              	MOVAR	STK00
00032b   561b     movra   0x1b             	MOVRA	r0x1031
00032c   5805     movar   0x5              	MOVAR	STK01
00032d   561a     movra   0x1a             	MOVRA	r0x1030
00032e   5804     movar   0x4              	MOVAR	STK02
00032f   5619     movra   0x19             	MOVRA	r0x102F
                                           ;	.line	732; "MC32F7361.c"	if (power < expected_power) //   
000330   5817     movar   0x17             	MOVAR	r0x102D
000331   561d     movra   0x1d             	MOVRA	r0x1033
000332   5818     movar   0x18             	MOVAR	r0x102E
000333   561e     movra   0x1e             	MOVRA	r0x1034
000334   761f     clrr    0x1f             	CLRR	r0x1035
000335   7620     clrr    0x20             	CLRR	r0x1036
000336   3c00     movai   0                	MOVAI	0x00
000337   481c     rsubar  0x1c             	RSUBAR	r0x1032
000338   e587     jbset   0x187, 0x2       	JBSET	PFLAG,2
000339   a344     goto    0x344            	GOTO	_00449_DS_
00033a   581f     movar   0x1f             	MOVAR	r0x1035
00033b   481b     rsubar  0x1b             	RSUBAR	r0x1031
00033c   e587     jbset   0x187, 0x2       	JBSET	PFLAG,2
00033d   a344     goto    0x344            	GOTO	_00449_DS_
00033e   581e     movar   0x1e             	MOVAR	r0x1034
00033f   481a     rsubar  0x1a             	RSUBAR	r0x1030
000340   e587     jbset   0x187, 0x2       	JBSET	PFLAG,2
000341   a344     goto    0x344            	GOTO	_00449_DS_
000342   581d     movar   0x1d             	MOVAR	r0x1033
000343   4819     rsubar  0x19             	RSUBAR	r0x102F
                                           _00449_DS_
000344   f187     jbclr   0x187, 0         	JBCLR	PFLAG,0
000345   a34c     goto    0x34c            	GOTO	_00306_DS_
                                           ;;genSkipc:3291: created from rifx:013B5EFC
                                           ;;unsigned compare: left < lit(0x64=100), size=1
                                           ;	.line	734; "MC32F7361.c"	if (pwm_duty < 100) // 100%
000346   3c64     movai   0x64             	MOVAI	0x64
000347   4830     rsubar  0x30             	RSUBAR	_charge_handle_pwm_duty_131072_59
000348   f187     jbclr   0x187, 0         	JBCLR	PFLAG,0
000349   a361     goto    0x361            	GOTO	_00310_DS_
                                           ;;genSkipc:3291: created from rifx:013B5EFC
                                           ;	.line	736; "MC32F7361.c"	pwm_duty++;
00034a   6630     incr    0x30             	INCR	_charge_handle_pwm_duty_131072_59
00034b   a361     goto    0x361            	GOTO	_00310_DS_
                                           _00306_DS_
                                           ;	.line	739; "MC32F7361.c"	else if (power > expected_power) //   
00034c   581c     movar   0x1c             	MOVAR	r0x1032
00034d   4820     rsubar  0x20             	RSUBAR	r0x1036
00034e   e587     jbset   0x187, 0x2       	JBSET	PFLAG,2
00034f   a35a     goto    0x35a            	GOTO	_00451_DS_
000350   581b     movar   0x1b             	MOVAR	r0x1031
000351   481f     rsubar  0x1f             	RSUBAR	r0x1035
000352   e587     jbset   0x187, 0x2       	JBSET	PFLAG,2
000353   a35a     goto    0x35a            	GOTO	_00451_DS_
000354   581a     movar   0x1a             	MOVAR	r0x1030
000355   481e     rsubar  0x1e             	RSUBAR	r0x1034
000356   e587     jbset   0x187, 0x2       	JBSET	PFLAG,2
000357   a35a     goto    0x35a            	GOTO	_00451_DS_
000358   5819     movar   0x19             	MOVAR	r0x102F
000359   481d     rsubar  0x1d             	RSUBAR	r0x1033
                                           _00451_DS_
00035a   f187     jbclr   0x187, 0         	JBCLR	PFLAG,0
00035b   a361     goto    0x361            	GOTO	_00310_DS_
                                           ;;genSkipc:3291: created from rifx:013B5EFC
                                           ;;swapping arguments (AOP_TYPEs 1/3)
                                           ;;unsigned compare: left >= lit(0x9=9), size=1
                                           ;	.line	741; "MC32F7361.c"	if (pwm_duty > MIN_PWM_DUTY_IN_LOW_POWER) // 
00035c   3c09     movai   0x9              	MOVAI	0x09
00035d   4830     rsubar  0x30             	RSUBAR	_charge_handle_pwm_duty_131072_59
00035e   e187     jbset   0x187, 0         	JBSET	PFLAG,0
00035f   a361     goto    0x361            	GOTO	_00310_DS_
                                           ;;genSkipc:3291: created from rifx:013B5EFC
                                           ;	.line	743; "MC32F7361.c"	pwm_duty--;
000360   6e30     decr    0x30             	DECR	_charge_handle_pwm_duty_131072_59
                                           ;;114	MOVAR	_charge_handle_pwm_duty_131072_59
                                           _00310_DS_
                                           ;	.line	757; "MC32F7361.c"	PWM_CTL_FOR_CHARGING_DUTY_REG = (u8)((u16)PWM_CTL_FOR_CHARGING_HIGH_FEQ_VAL * pwm_duty / 100);
000361   7618     clrr    0x18             	CLRR	r0x102E
                                           ;;113	MOVAR	r0x102D
000362   5830     movar   0x30             	MOVAR	_charge_handle_pwm_duty_131072_59
000363   5617     movra   0x17             	MOVRA	r0x102D
000364   5604     movra   0x4              	MOVRA	STK02
000365   3c00     movai   0                	MOVAI	0x00
000366   5605     movra   0x5              	MOVRA	STK01
000367   3ca4     movai   0xa4             	MOVAI	0xa4
000368   5606     movra   0x6              	MOVRA	STK00
000369   3c00     movai   0                	MOVAI	0x00
00036a   8629     call    0x629            	CALL	__mulint
00036b   5618     movra   0x18             	MOVRA	r0x102E
00036c   5806     movar   0x6              	MOVAR	STK00
00036d   5617     movra   0x17             	MOVRA	r0x102D
00036e   3c64     movai   0x64             	MOVAI	0x64
00036f   5604     movra   0x4              	MOVRA	STK02
000370   3c00     movai   0                	MOVAI	0x00
000371   5605     movra   0x5              	MOVRA	STK01
000372   5817     movar   0x17             	MOVAR	r0x102D
000373   5606     movra   0x6              	MOVRA	STK00
000374   5818     movar   0x18             	MOVAR	r0x102E
000375   866b     call    0x66b            	CALL	__divuint
000376   5618     movra   0x18             	MOVRA	r0x102E
000377   5806     movar   0x6              	MOVAR	STK00
000378   5617     movra   0x17             	MOVRA	r0x102D
000379   5817     movar   0x17             	MOVAR	r0x102D
00037a   579b     movra   0x19b            	MOVRA	_T0DATA
                                           _00313_DS_
                                           ;	.line	759; "MC32F7361.c"	}
00037b   000c     return                   	RETURN	
                                           ; exit point of _charge_handle
                                           
                                           ;***
                                           ;  pBlock Stats: dbName = C
                                           ;***
                                           ;entry:  _sys_init	;Function start
                                           ; 2 exit points
                                           ;has an exit
                                           ;functions called:
                                           ;   _CLR_RAM
                                           ;   _IO_Init
                                           ;   _timer1_config
                                           ;   _timer2_pwm_config
                                           ;   _delay_ms
                                           ;   _CLR_RAM
                                           ;   _IO_Init
                                           ;   _timer1_config
                                           ;   _timer2_pwm_config
                                           ;   _delay_ms
                                           ;1 compiler assigned register :
                                           ;   STK00
                                           ;; Starting pCode block
                                           _sys_init	;Function start
                                           ; 2 exit points
                                           ;	.line	465; "MC32F7361.c"	GIE = 0;
00037c   df88     bclr    0x188, 0x7       	BCLR	_MCRbits,7
                                           ;	.line	466; "MC32F7361.c"	CLR_RAM();
00037d   84ab     call    0x4ab            	CALL	_CLR_RAM
                                           ;	.line	467; "MC32F7361.c"	IO_Init();
00037e   8496     call    0x496            	CALL	_IO_Init
                                           ;	.line	468; "MC32F7361.c"	PWM_CTL_FOR_CHARGING_CONFIG(); // pwm/
00037f   c5bd     bset    0x1bd, 0x2       	BSET	_PWMCR3,2
                                           ;	.line	469; "MC32F7361.c"	timer1_config();               // timer1 100us
000380   847e     call    0x47e            	CALL	_timer1_config
                                           ;	.line	471; "MC32F7361.c"	PWM_CTL_FOR_LIGHTS(); //   pwm
000381   8478     call    0x478            	CALL	_timer2_pwm_config
                                           ;	.line	473; "MC32F7361.c"	delay_ms(1); // 
000382   3c01     movai   0x1              	MOVAI	0x01
000383   5606     movra   0x6              	MOVRA	STK00
000384   3c00     movai   0                	MOVAI	0x00
000385   84b7     call    0x4b7            	CALL	_delay_ms
                                           ;	.line	474; "MC32F7361.c"	GIE = 1;
000386   cf88     bset    0x188, 0x7       	BSET	_MCRbits,7
                                           ;	.line	475; "MC32F7361.c"	}
000387   000c     return                   	RETURN	
                                           ; exit point of _sys_init
                                           
                                           ;***
                                           ;  pBlock Stats: dbName = C
                                           ;***
                                           ;entry:  _adc_update_current_adc_val	;Function start
                                           ; 2 exit points
                                           ;has an exit
                                           ;functions called:
                                           ;   _adc_sel_ref_voltage
                                           ;   _adc_sel_pin
                                           ;   _adc_getval
                                           ;   _adc_sel_ref_voltage
                                           ;   _adc_sel_pin
                                           ;   _adc_getval
                                           ;1 compiler assigned register :
                                           ;   STK00
                                           ;; Starting pCode block
                                           _adc_update_current_adc_val	;Function start
                                           ; 2 exit points
                                           ;	.line	458; "MC32F7361.c"	adc_sel_ref_voltage(ADC_REF_3_0_VOL);
000388   3c01     movai   0x1              	MOVAI	0x01
000389   8456     call    0x456            	CALL	_adc_sel_ref_voltage
                                           ;	.line	459; "MC32F7361.c"	adc_sel_pin(ADC_PIN_DETECT_CURRENT);
00038a   3c03     movai   0x3              	MOVAI	0x03
00038b   843c     call    0x43c            	CALL	_adc_sel_pin
                                           ;	.line	460; "MC32F7361.c"	current_adc_val = adc_getval();
00038c   83a4     call    0x3a4            	CALL	_adc_getval
00038d   5675     movra   0x75             	MOVRA	(_current_adc_val + 1)
00038e   5806     movar   0x6              	MOVAR	STK00
00038f   5674     movra   0x74             	MOVRA	_current_adc_val
                                           ;	.line	461; "MC32F7361.c"	}
000390   000c     return                   	RETURN	
                                           ; exit point of _adc_update_current_adc_val
                                           
                                           ;***
                                           ;  pBlock Stats: dbName = C
                                           ;***
                                           ;entry:  _adc_update_charge_adc_val	;Function start
                                           ; 2 exit points
                                           ;has an exit
                                           ;functions called:
                                           ;   _adc_sel_ref_voltage
                                           ;   _adc_sel_pin
                                           ;   _adc_getval
                                           ;   _adc_sel_ref_voltage
                                           ;   _adc_sel_pin
                                           ;   _adc_getval
                                           ;2 compiler assigned registers:
                                           ;   r0x102C
                                           ;   STK00
                                           ;; Starting pCode block
                                           _adc_update_charge_adc_val	;Function start
                                           ; 2 exit points
                                           ;	.line	445; "MC32F7361.c"	void adc_update_charge_adc_val(u8 adc_ref_voltage)
000391   5616     movra   0x16             	MOVRA	r0x102C
                                           ;	.line	447; "MC32F7361.c"	adc_sel_ref_voltage(adc_ref_voltage);
000392   5816     movar   0x16             	MOVAR	r0x102C
000393   8456     call    0x456            	CALL	_adc_sel_ref_voltage
                                           ;	.line	448; "MC32F7361.c"	adc_sel_pin(ADC_PIN_DETECT_CHARGE);
000394   3c01     movai   0x1              	MOVAI	0x01
000395   843c     call    0x43c            	CALL	_adc_sel_pin
                                           ;	.line	449; "MC32F7361.c"	charging_adc_val = adc_getval();
000396   83a4     call    0x3a4            	CALL	_adc_getval
000397   5673     movra   0x73             	MOVRA	(_charging_adc_val + 1)
000398   5806     movar   0x6              	MOVAR	STK00
000399   5672     movra   0x72             	MOVRA	_charging_adc_val
                                           ;	.line	450; "MC32F7361.c"	}
00039a   000c     return                   	RETURN	
                                           ; exit point of _adc_update_charge_adc_val
                                           
                                           ;***
                                           ;  pBlock Stats: dbName = C
                                           ;***
                                           ;entry:  _adc_update_bat_adc_val	;Function start
                                           ; 2 exit points
                                           ;has an exit
                                           ;functions called:
                                           ;   _adc_sel_ref_voltage
                                           ;   _adc_sel_pin
                                           ;   _adc_getval
                                           ;   _adc_sel_ref_voltage
                                           ;   _adc_sel_pin
                                           ;   _adc_getval
                                           ;1 compiler assigned register :
                                           ;   STK00
                                           ;; Starting pCode block
                                           _adc_update_bat_adc_val	;Function start
                                           ; 2 exit points
                                           ;	.line	433; "MC32F7361.c"	adc_sel_ref_voltage(ADC_REF_2_0_VOL);
00039b   3c00     movai   0                	MOVAI	0x00
00039c   8456     call    0x456            	CALL	_adc_sel_ref_voltage
                                           ;	.line	434; "MC32F7361.c"	adc_sel_pin(ADC_PIN_DETECT_BATTERY);
00039d   3c02     movai   0x2              	MOVAI	0x02
00039e   843c     call    0x43c            	CALL	_adc_sel_pin
                                           ;	.line	435; "MC32F7361.c"	bat_adc_val = adc_getval();
00039f   83a4     call    0x3a4            	CALL	_adc_getval
0003a0   5671     movra   0x71             	MOVRA	(_bat_adc_val + 1)
0003a1   5806     movar   0x6              	MOVAR	STK00
0003a2   5670     movra   0x70             	MOVRA	_bat_adc_val
                                           ;	.line	436; "MC32F7361.c"	}
0003a3   000c     return                   	RETURN	
                                           ; exit point of _adc_update_bat_adc_val
                                           
                                           ;***
                                           ;  pBlock Stats: dbName = C
                                           ;***
                                           ;entry:  _adc_getval	;Function start
                                           ; 2 exit points
                                           ;has an exit
                                           ;16 compiler assigned registers:
                                           ;   r0x101D
                                           ;   r0x101E
                                           ;   r0x101F
                                           ;   r0x1020
                                           ;   r0x1021
                                           ;   r0x1022
                                           ;   r0x1023
                                           ;   r0x1024
                                           ;   r0x1025
                                           ;   r0x1026
                                           ;   r0x1027
                                           ;   r0x1028
                                           ;   r0x1029
                                           ;   r0x102A
                                           ;   r0x102B
                                           ;   STK00
                                           ;; Starting pCode block
                                           _adc_getval	;Function start
                                           ; 2 exit points
                                           ;	.line	400; "MC32F7361.c"	u32 adc_val_sum = 0;     // ad
0003a4   7608     clrr    0x8              	CLRR	r0x101D
0003a5   7607     clrr    0x7              	CLRR	r0x101E
0003a6   7609     clrr    0x9              	CLRR	r0x101F
0003a7   760a     clrr    0xa              	CLRR	r0x1020
                                           ;	.line	401; "MC32F7361.c"	u16 get_adcmax = 0;      // ad
0003a8   760b     clrr    0xb              	CLRR	r0x1021
0003a9   760c     clrr    0xc              	CLRR	r0x1022
                                           ;	.line	402; "MC32F7361.c"	u16 get_adcmin = 0xFFFF; // ad()
0003aa   3cff     movai   0xff             	MOVAI	0xff
0003ab   560d     movra   0xd              	MOVRA	r0x1023
0003ac   560e     movra   0xe              	MOVRA	r0x1024
                                           ;	.line	404; "MC32F7361.c"	for (i = 0; i < 20; i++)
0003ad   760f     clrr    0xf              	CLRR	r0x1025
                                           _00188_DS_
                                           ;	.line	406; "MC32F7361.c"	ADEOC = 0; // 0
0003ae   d3b0     bclr    0x1b0, 0x1       	BCLR	_ADCR0bits,1
                                           _00177_DS_
                                           ;	.line	407; "MC32F7361.c"	while (!ADEOC)
0003af   e3b0     jbset   0x1b0, 0x1       	JBSET	_ADCR0bits,1
0003b0   a3af     goto    0x3af            	GOTO	_00177_DS_
                                           ;	.line	409; "MC32F7361.c"	adc_val_tmp = ADRH << 4 | (ADRL & 0x0F);
0003b1   59b4     movar   0x1b4            	MOVAR	_ADRH
0003b2   5610     movra   0x10             	MOVRA	r0x1026
0003b3   7611     clrr    0x11             	CLRR	r0x1027
0003b4   4411     swapar  0x11             	SWAPAR	r0x1027
0003b5   3ef0     andai   0xf0             	ANDAI	0xf0
0003b6   5613     movra   0x13             	MOVRA	r0x1028
0003b7   4410     swapar  0x10             	SWAPAR	r0x1026
0003b8   5612     movra   0x12             	MOVRA	r0x1029
0003b9   3e0f     andai   0xf              	ANDAI	0x0f
0003ba   5e13     orra    0x13             	ORRA	r0x1028
0003bb   4212     xorra   0x12             	XORRA	r0x1029
0003bc   59b5     movar   0x1b5            	MOVAR	_ADRL
0003bd   5610     movra   0x10             	MOVRA	r0x1026
0003be   7611     clrr    0x11             	CLRR	r0x1027
0003bf   3c0f     movai   0xf              	MOVAI	0x0f
0003c0   7a10     andra   0x10             	ANDRA	r0x1026
0003c1   7611     clrr    0x11             	CLRR	r0x1027
0003c2   5812     movar   0x12             	MOVAR	r0x1029
0003c3   5e10     orra    0x10             	ORRA	r0x1026
0003c4   5813     movar   0x13             	MOVAR	r0x1028
0003c5   5e11     orra    0x11             	ORRA	r0x1027
                                           ;;unsigned compare: left < lit(0x2=2), size=1
                                           ;	.line	411; "MC32F7361.c"	if (i < 2)
0003c6   3c02     movai   0x2              	MOVAI	0x02
0003c7   480f     rsubar  0xf              	RSUBAR	r0x1025
0003c8   e187     jbset   0x187, 0         	JBSET	PFLAG,0
0003c9   a3f4     goto    0x3f4            	GOTO	_00186_DS_
                                           ;;genSkipc:3291: created from rifx:013B5EFC
                                           ;	.line	413; "MC32F7361.c"	if (adc_val_tmp > get_adcmax)
0003ca   5811     movar   0x11             	MOVAR	r0x1027
0003cb   480c     rsubar  0xc              	RSUBAR	r0x1022
0003cc   e587     jbset   0x187, 0x2       	JBSET	PFLAG,2
0003cd   a3d0     goto    0x3d0            	GOTO	_00228_DS_
0003ce   5810     movar   0x10             	MOVAR	r0x1026
0003cf   480b     rsubar  0xb              	RSUBAR	r0x1021
                                           _00228_DS_
0003d0   f187     jbclr   0x187, 0         	JBCLR	PFLAG,0
0003d1   a3d6     goto    0x3d6            	GOTO	_00183_DS_
                                           ;;genSkipc:3291: created from rifx:013B5EFC
                                           ;	.line	414; "MC32F7361.c"	get_adcmax = adc_val_tmp; // 
0003d2   5810     movar   0x10             	MOVAR	r0x1026
0003d3   560b     movra   0xb              	MOVRA	r0x1021
0003d4   5811     movar   0x11             	MOVAR	r0x1027
0003d5   560c     movra   0xc              	MOVRA	r0x1022
                                           _00183_DS_
                                           ;	.line	415; "MC32F7361.c"	if (adc_val_tmp < get_adcmin)
0003d6   580e     movar   0xe              	MOVAR	r0x1024
0003d7   4811     rsubar  0x11             	RSUBAR	r0x1027
0003d8   e587     jbset   0x187, 0x2       	JBSET	PFLAG,2
0003d9   a3dc     goto    0x3dc            	GOTO	_00229_DS_
0003da   580d     movar   0xd              	MOVAR	r0x1023
0003db   4810     rsubar  0x10             	RSUBAR	r0x1026
                                           _00229_DS_
0003dc   f187     jbclr   0x187, 0         	JBCLR	PFLAG,0
0003dd   a3e2     goto    0x3e2            	GOTO	_00185_DS_
                                           ;;genSkipc:3291: created from rifx:013B5EFC
                                           ;	.line	416; "MC32F7361.c"	get_adcmin = adc_val_tmp; // 
0003de   5810     movar   0x10             	MOVAR	r0x1026
0003df   560d     movra   0xd              	MOVRA	r0x1023
0003e0   5811     movar   0x11             	MOVAR	r0x1027
0003e1   560e     movra   0xe              	MOVRA	r0x1024
                                           ;;110	MOVAR	r0x1026
                                           ;;112	MOVAR	r0x1027
                                           _00185_DS_
                                           ;	.line	417; "MC32F7361.c"	adc_val_sum += adc_val_tmp;
0003e2   7614     clrr    0x14             	CLRR	r0x102A
0003e3   7615     clrr    0x15             	CLRR	r0x102B
                                           ;;109	MOVAR	r0x1029
0003e4   5810     movar   0x10             	MOVAR	r0x1026
0003e5   5612     movra   0x12             	MOVRA	r0x1029
0003e6   7e08     addra   0x8              	ADDRA	r0x101D
                                           ;;111	MOVAR	r0x1028
0003e7   5811     movar   0x11             	MOVAR	r0x1027
0003e8   5613     movra   0x13             	MOVRA	r0x1028
0003e9   f187     jbclr   0x187, 0         	JBCLR	PFLAG,0
0003ea   6013     jzar    0x13             	JZAR	r0x1028
0003eb   7e07     addra   0x7              	ADDRA	r0x101E
0003ec   5814     movar   0x14             	MOVAR	r0x102A
0003ed   f187     jbclr   0x187, 0         	JBCLR	PFLAG,0
0003ee   6014     jzar    0x14             	JZAR	r0x102A
0003ef   7e09     addra   0x9              	ADDRA	r0x101F
0003f0   5815     movar   0x15             	MOVAR	r0x102B
0003f1   f187     jbclr   0x187, 0         	JBCLR	PFLAG,0
0003f2   6015     jzar    0x15             	JZAR	r0x102B
0003f3   7e0a     addra   0xa              	ADDRA	r0x1020
                                           _00186_DS_
                                           ;	.line	404; "MC32F7361.c"	for (i = 0; i < 20; i++)
0003f4   660f     incr    0xf              	INCR	r0x1025
                                           ;;unsigned compare: left < lit(0x14=20), size=1
0003f5   3c14     movai   0x14             	MOVAI	0x14
0003f6   480f     rsubar  0xf              	RSUBAR	r0x1025
0003f7   e187     jbset   0x187, 0         	JBSET	PFLAG,0
0003f8   a3ae     goto    0x3ae            	GOTO	_00188_DS_
                                           ;;genSkipc:3291: created from rifx:013B5EFC
                                           ;;108	MOVAR	r0x1021
                                           ;	.line	420; "MC32F7361.c"	adc_val_sum -= get_adcmax;        // 
0003f9   580c     movar   0xc              	MOVAR	r0x1022
0003fa   5610     movra   0x10             	MOVRA	r0x1026
0003fb   7611     clrr    0x11             	CLRR	r0x1027
0003fc   7612     clrr    0x12             	CLRR	r0x1029
                                           ;;107	MOVAR	r0x1025
0003fd   580b     movar   0xb              	MOVAR	r0x1021
0003fe   560f     movra   0xf              	MOVRA	r0x1025
0003ff   4808     rsubar  0x8              	RSUBAR	r0x101D
000400   560b     movra   0xb              	MOVRA	r0x1021
000401   5807     movar   0x7              	MOVAR	r0x101E
000402   560c     movra   0xc              	MOVRA	r0x1022
000403   5810     movar   0x10             	MOVAR	r0x1026
000404   e187     jbset   0x187, 0         	JBSET	PFLAG,0
000405   6010     jzar    0x10             	JZAR	r0x1026
000406   4a0c     rsubra  0xc              	RSUBRA	r0x1022
000407   5809     movar   0x9              	MOVAR	r0x101F
000408   5613     movra   0x13             	MOVRA	r0x1028
000409   5811     movar   0x11             	MOVAR	r0x1027
00040a   e187     jbset   0x187, 0         	JBSET	PFLAG,0
00040b   6011     jzar    0x11             	JZAR	r0x1027
00040c   4a13     rsubra  0x13             	RSUBRA	r0x1028
00040d   5812     movar   0x12             	MOVAR	r0x1029
00040e   e187     jbset   0x187, 0         	JBSET	PFLAG,0
00040f   6412     incar   0x12             	INCAR	r0x1029
000410   480a     rsubar  0xa              	RSUBAR	r0x1020
000411   5614     movra   0x14             	MOVRA	r0x102A
                                           ;;100	MOVAR	r0x1023
                                           ;;102	MOVAR	r0x1024
                                           ;	.line	421; "MC32F7361.c"	adc_val_sum -= get_adcmin;        // 
000412   7609     clrr    0x9              	CLRR	r0x101F
000413   760a     clrr    0xa              	CLRR	r0x1020
                                           ;;99	MOVAR	r0x101D
000414   580d     movar   0xd              	MOVAR	r0x1023
000415   5608     movra   0x8              	MOVRA	r0x101D
000416   4a0b     rsubra  0xb              	RSUBRA	r0x1021
                                           ;;101	MOVAR	r0x101E
000417   580e     movar   0xe              	MOVAR	r0x1024
000418   5607     movra   0x7              	MOVRA	r0x101E
000419   e187     jbset   0x187, 0         	JBSET	PFLAG,0
00041a   6007     jzar    0x7              	JZAR	r0x101E
00041b   4a0c     rsubra  0xc              	RSUBRA	r0x1022
00041c   5809     movar   0x9              	MOVAR	r0x101F
00041d   e187     jbset   0x187, 0         	JBSET	PFLAG,0
00041e   6009     jzar    0x9              	JZAR	r0x101F
00041f   4a13     rsubra  0x13             	RSUBRA	r0x1028
000420   580a     movar   0xa              	MOVAR	r0x1020
000421   e187     jbset   0x187, 0         	JBSET	PFLAG,0
000422   600a     jzar    0xa              	JZAR	r0x1020
000423   4a14     rsubra  0x14             	RSUBRA	r0x102A
                                           ;	.line	422; "MC32F7361.c"	adc_val_tmp = (adc_val_sum >> 4); // 16
000424   440b     swapar  0xb              	SWAPAR	r0x1021
000425   3e0f     andai   0xf              	ANDAI	0x0f
000426   5608     movra   0x8              	MOVRA	r0x101D
000427   440c     swapar  0xc              	SWAPAR	r0x1022
000428   5607     movra   0x7              	MOVRA	r0x101E
000429   3ef0     andai   0xf0             	ANDAI	0xf0
00042a   5e08     orra    0x8              	ORRA	r0x101D
00042b   4207     xorra   0x7              	XORRA	r0x101E
00042c   4413     swapar  0x13             	SWAPAR	r0x1028
00042d   5609     movra   0x9              	MOVRA	r0x101F
00042e   3ef0     andai   0xf0             	ANDAI	0xf0
00042f   5e07     orra    0x7              	ORRA	r0x101E
000430   4209     xorra   0x9              	XORRA	r0x101F
000431   4414     swapar  0x14             	SWAPAR	r0x102A
000432   560a     movra   0xa              	MOVRA	r0x1020
000433   3ef0     andai   0xf0             	ANDAI	0xf0
000434   5e09     orra    0x9              	ORRA	r0x101F
000435   420a     xorra   0xa              	XORRA	r0x1020
                                           ;;104	MOVAR	r0x101D
                                           ;;106	MOVAR	r0x101E
                                           ;;103	MOVAR	r0x1021
                                           ;	.line	424; "MC32F7361.c"	return adc_val_tmp;
000436   5808     movar   0x8              	MOVAR	r0x101D
000437   560b     movra   0xb              	MOVRA	r0x1021
000438   5606     movra   0x6              	MOVRA	STK00
                                           ;;105	MOVAR	r0x1022
000439   5807     movar   0x7              	MOVAR	r0x101E
00043a   560c     movra   0xc              	MOVRA	r0x1022
                                           ;	.line	425; "MC32F7361.c"	}
00043b   000c     return                   	RETURN	
                                           ; exit point of _adc_getval
                                           
                                           ;***
                                           ;  pBlock Stats: dbName = C
                                           ;***
                                           ;entry:  _adc_sel_pin	;Function start
                                           ; 2 exit points
                                           ;has an exit
                                           ;functions called:
                                           ;   _delay_ms
                                           ;   _delay_ms
                                           ;2 compiler assigned registers:
                                           ;   r0x1023
                                           ;   STK00
                                           ;; Starting pCode block
                                           _adc_sel_pin	;Function start
                                           ; 2 exit points
                                           ;	.line	366; "MC32F7361.c"	void adc_sel_pin(u8 adc_pin)
00043c   560d     movra   0xd              	MOVRA	r0x1023
                                           ;	.line	368; "MC32F7361.c"	if (ADC_PIN_DETECT_CHARGE == adc_pin)
00043d   580d     movar   0xd              	MOVAR	r0x1023
00043e   3901     xorai   0x1              	XORAI	0x01
00043f   e587     jbset   0x187, 0x2       	JBSET	PFLAG,2
000440   a444     goto    0x444            	GOTO	_00171_DS_
                                           ;	.line	374; "MC32F7361.c"	(0x01 << 0);  /* ADC */
000441   3c8b     movai   0x8b             	MOVAI	0x8b
000442   57b0     movra   0x1b0            	MOVRA	_ADCR0
000443   a451     goto    0x451            	GOTO	_00172_DS_
                                           _00171_DS_
                                           ;	.line	376; "MC32F7361.c"	else if (ADC_PIN_DETECT_BATTERY == adc_pin)
000444   580d     movar   0xd              	MOVAR	r0x1023
000445   3902     xorai   0x2              	XORAI	0x02
000446   e587     jbset   0x187, 0x2       	JBSET	PFLAG,2
000447   a44b     goto    0x44b            	GOTO	_00168_DS_
                                           ;	.line	382; "MC32F7361.c"	(0x01 << 0);  /* ADC */
000448   3c4b     movai   0x4b             	MOVAI	0x4b
000449   57b0     movra   0x1b0            	MOVRA	_ADCR0
00044a   a451     goto    0x451            	GOTO	_00172_DS_
                                           _00168_DS_
                                           ;	.line	384; "MC32F7361.c"	else if (ADC_PIN_DETECT_CURRENT == adc_pin)
00044b   580d     movar   0xd              	MOVAR	r0x1023
00044c   3903     xorai   0x3              	XORAI	0x03
00044d   e587     jbset   0x187, 0x2       	JBSET	PFLAG,2
00044e   a451     goto    0x451            	GOTO	_00172_DS_
                                           ;	.line	390; "MC32F7361.c"	(0x01 << 0);                /* ADC */
00044f   3c6b     movai   0x6b             	MOVAI	0x6b
000450   57b0     movra   0x1b0            	MOVRA	_ADCR0
                                           _00172_DS_
                                           ;	.line	393; "MC32F7361.c"	delay_ms(1); // adc
000451   3c01     movai   0x1              	MOVAI	0x01
000452   5606     movra   0x6              	MOVRA	STK00
000453   3c00     movai   0                	MOVAI	0x00
000454   84b7     call    0x4b7            	CALL	_delay_ms
                                           ;	.line	394; "MC32F7361.c"	}
000455   000c     return                   	RETURN	
                                           ; exit point of _adc_sel_pin
                                           
                                           ;***
                                           ;  pBlock Stats: dbName = C
                                           ;***
                                           ;entry:  _adc_sel_ref_voltage	;Function start
                                           ; 2 exit points
                                           ;has an exit
                                           ;1 compiler assigned register :
                                           ;   r0x101D
                                           ;; Starting pCode block
                                           _adc_sel_ref_voltage	;Function start
                                           ; 2 exit points
                                           ;	.line	338; "MC32F7361.c"	void adc_sel_ref_voltage(u8 adc_ref_voltage)
000456   5608     movra   0x8              	MOVRA	r0x101D
                                           ;	.line	342; "MC32F7361.c"	if (ADC_REF_2_0_VOL == adc_ref_voltage)
000457   3c00     movai   0                	MOVAI	0x00
000458   5c08     orar    0x8              	ORAR	r0x101D
000459   e587     jbset   0x187, 0x2       	JBSET	PFLAG,2
00045a   a45e     goto    0x45e            	GOTO	_00158_DS_
                                           ;	.line	346; "MC32F7361.c"	(0x01 << 5); /* 2:0 2.0V  */
00045b   3ce0     movai   0xe0             	MOVAI	0xe0
00045c   57b1     movra   0x1b1            	MOVRA	_ADCR1
00045d   a464     goto    0x464            	GOTO	_00160_DS_
                                           _00158_DS_
                                           ;	.line	348; "MC32F7361.c"	else if (ADC_REF_3_0_VOL == adc_ref_voltage)
00045e   5808     movar   0x8              	MOVAR	r0x101D
00045f   3901     xorai   0x1              	XORAI	0x01
000460   e587     jbset   0x187, 0x2       	JBSET	PFLAG,2
000461   a464     goto    0x464            	GOTO	_00160_DS_
                                           ;	.line	353; "MC32F7361.c"	(0x01 << 0); /* 2:0 == 0b 001 3.0V  */
000462   3ce1     movai   0xe1             	MOVAI	0xe1
000463   57b1     movra   0x1b1            	MOVRA	_ADCR1
                                           _00160_DS_
                                           ;	.line	358; "MC32F7361.c"	}
000464   000c     return                   	RETURN	
                                           ; exit point of _adc_sel_ref_voltage
                                           
                                           ;***
                                           ;  pBlock Stats: dbName = C
                                           ;***
                                           ;entry:  _adc_config	;Function start
                                           ; 2 exit points
                                           ;has an exit
                                           ;; Starting pCode block
                                           _adc_config	;Function start
                                           ; 2 exit points
                                           ;	.line	315; "MC32F7361.c"	P14OE = 0; // 
000465   d995     bclr    0x195, 0x4       	BCLR	_OEP1bits,4
                                           ;	.line	316; "MC32F7361.c"	P14DC = 1; // 
000466   c9b7     bset    0x1b7, 0x4       	BSET	_P1ADCRbits,4
                                           ;	.line	319; "MC32F7361.c"	P05OE = 0; // 
000467   db91     bclr    0x191, 0x5       	BCLR	_OEP0bits,5
                                           ;	.line	320; "MC32F7361.c"	P05DC = 1; // 
000468   cbb6     bset    0x1b6, 0x5       	BSET	_P0ADCRbits,5
                                           ;	.line	323; "MC32F7361.c"	P11OE = 0; // 
000469   d395     bclr    0x195, 0x1       	BCLR	_OEP1bits,1
                                           ;	.line	324; "MC32F7361.c"	P11DC = 1; // 
00046a   c3b7     bset    0x1b7, 0x1       	BSET	_P1ADCRbits,1
                                           ;	.line	326; "MC32F7361.c"	ADCR0 = 0x0B; // 12adc
00046b   3c0b     movai   0xb              	MOVAI	0x0b
00046c   57b0     movra   0x1b0            	MOVRA	_ADCR0
                                           ;	.line	328; "MC32F7361.c"	ADCR2 = 0x0F; // 15  ADCLK
00046d   3c0f     movai   0xf              	MOVAI	0x0f
00046e   57b2     movra   0x1b2            	MOVRA	_ADCR2
                                           ;	.line	329; "MC32F7361.c"	}
00046f   000c     return                   	RETURN	
                                           ; exit point of _adc_config
                                           
                                           ;***
                                           ;  pBlock Stats: dbName = C
                                           ;***
                                           ;entry:  _timer2_pwm_set_feq	;Function start
                                           ; 2 exit points
                                           ;has an exit
                                           ;; Starting pCode block
                                           _timer2_pwm_set_feq	;Function start
                                           ; 2 exit points
                                           ;	.line	295; "MC32F7361.c"	PWMCR1 |= (0x01 << 4); // FTMR  FHOSC
000470   c9ad     bset    0x1ad, 0x4       	BSET	_PWMCR1,4
                                           ;	.line	297; "MC32F7361.c"	T2CR = (0x01 << 7) | (0x01 << 6) | (0x01 << 3); // PWM, FTMR
000471   3cc8     movai   0xc8             	MOVAI	0xc8
000472   57a0     movra   0x1a0            	MOVRA	_T2CR
                                           ;	.line	298; "MC32F7361.c"	T2LOAD = 255 - 1;                               //
000473   3cfe     movai   0xfe             	MOVAI	0xfe
000474   57a2     movra   0x1a2            	MOVRA	_T2LOAD
                                           ;	.line	299; "MC32F7361.c"	T2DATA = 255 - 50;                              /*  NPWM PWM   PWM */
000475   3ccd     movai   0xcd             	MOVAI	0xcd
000476   57a3     movra   0x1a3            	MOVRA	_T2DATA
                                           ;	.line	300; "MC32F7361.c"	}
000477   000c     return                   	RETURN	
                                           ; exit point of _timer2_pwm_set_feq
                                           
                                           ;***
                                           ;  pBlock Stats: dbName = C
                                           ;***
                                           ;entry:  _timer2_pwm_config	;Function start
                                           ; 2 exit points
                                           ;has an exit
                                           ;; Starting pCode block
                                           _timer2_pwm_config	;Function start
                                           ; 2 exit points
                                           ;	.line	280; "MC32F7361.c"	T2CR = (0x01 << 2); // PWM,  CPU16 
000478   3c04     movai   0x4              	MOVAI	0x04
000479   57a0     movra   0x1a0            	MOVRA	_T2CR
                                           ;	.line	284; "MC32F7361.c"	T2LOAD = LIGHT_TIMER_FEQ_VAL; // 1.056KHz
00047a   3cfe     movai   0xfe             	MOVAI	0xfe
00047b   57a2     movra   0x1a2            	MOVRA	_T2LOAD
                                           ;	.line	290; "MC32F7361.c"	PWMCR3 |= (0x01 << 4); // NFPWM2
00047c   c9bd     bset    0x1bd, 0x4       	BSET	_PWMCR3,4
                                           ;	.line	291; "MC32F7361.c"	}
00047d   000c     return                   	RETURN	
                                           ; exit point of _timer2_pwm_config
                                           
                                           ;***
                                           ;  pBlock Stats: dbName = C
                                           ;***
                                           ;entry:  _timer1_config	;Function start
                                           ; 2 exit points
                                           ;has an exit
                                           ;; Starting pCode block
                                           _timer1_config	;Function start
                                           ; 2 exit points
                                           ;	.line	268; "MC32F7361.c"	T1CR |= (0x01 << 7) | (0x01 << 1); // CPU, 4
00047e   3c82     movai   0x82             	MOVAI	0x82
00047f   5f9c     orra    0x19c            	ORRA	_T1CR
                                           ;	.line	269; "MC32F7361.c"	T1LOAD = 108 - 1;                  // 100us (sdk)
000480   3c6b     movai   0x6b             	MOVAI	0x6b
000481   579e     movra   0x19e            	MOVRA	_T1LOAD
                                           ;	.line	270; "MC32F7361.c"	T1IE = 1;
000482   c38a     bset    0x18a, 0x1       	BSET	_INTEbits,1
                                           ;	.line	271; "MC32F7361.c"	}
000483   000c     return                   	RETURN	
                                           ; exit point of _timer1_config
                                           
                                           ;***
                                           ;  pBlock Stats: dbName = C
                                           ;***
                                           ;entry:  _timer0_pwm_disable	;Function start
                                           ; 2 exit points
                                           ;has an exit
                                           ;; Starting pCode block
                                           _timer0_pwm_disable	;Function start
                                           ; 2 exit points
                                           ;	.line	261; "MC32F7361.c"	T0CR &= ~((0x01 << 7) | (0x01 << 6)); // PWM
000484   3c3f     movai   0x3f             	MOVAI	0x3f
000485   7b98     andra   0x198            	ANDRA	_T0CR
                                           ;	.line	262; "MC32F7361.c"	P02D = 0;                             // 
000486   d590     bclr    0x190, 0x2       	BCLR	_IOP0bits,2
                                           ;	.line	263; "MC32F7361.c"	}
000487   000c     return                   	RETURN	
                                           ; exit point of _timer0_pwm_disable
                                           
                                           ;***
                                           ;  pBlock Stats: dbName = C
                                           ;***
                                           ;entry:  _timer0_pwm_set_high_feq	;Function start
                                           ; 2 exit points
                                           ;has an exit
                                           ;; Starting pCode block
                                           _timer0_pwm_set_high_feq	;Function start
                                           ; 2 exit points
                                           ;	.line	241; "MC32F7361.c"	PWMCR1 |= (0x01 << 4); // FTMR  FHOSC
000488   c9ad     bset    0x1ad, 0x4       	BSET	_PWMCR1,4
                                           ;	.line	248; "MC32F7361.c"	T0CR = (0x01 << 7) | (0x01 << 6) | (0x01 << 3) | (0x01 << 0); // PWM, FTMR2
000489   3cc9     movai   0xc9             	MOVAI	0xc9
00048a   5798     movra   0x198            	MOVRA	_T0CR
                                           ;	.line	249; "MC32F7361.c"	T0LOAD = PWM_CTL_FOR_CHARGING_HIGH_FEQ_VAL;
00048b   3ca4     movai   0xa4             	MOVAI	0xa4
00048c   579a     movra   0x19a            	MOVRA	_T0LOAD
                                           ;	.line	250; "MC32F7361.c"	T0DATA = 0;
00048d   779b     clrr    0x19b            	CLRR	_T0DATA
                                           ;	.line	251; "MC32F7361.c"	}
00048e   000c     return                   	RETURN	
                                           ; exit point of _timer0_pwm_set_high_feq
                                           
                                           ;***
                                           ;  pBlock Stats: dbName = C
                                           ;***
                                           ;entry:  _timer0_pwm_set_low_feq	;Function start
                                           ; 2 exit points
                                           ;has an exit
                                           ;; Starting pCode block
                                           _timer0_pwm_set_low_feq	;Function start
                                           ; 2 exit points
                                           ;	.line	230; "MC32F7361.c"	T0CR = (0x01 << 7) | (0x01 << 6); // PWMCPU
00048f   3cc0     movai   0xc0             	MOVAI	0xc0
000490   5798     movra   0x198            	MOVRA	_T0CR
                                           ;	.line	231; "MC32F7361.c"	T0LOAD = 215 - 1;
000491   3cd6     movai   0xd6             	MOVAI	0xd6
000492   579a     movra   0x19a            	MOVRA	_T0LOAD
                                           ;	.line	232; "MC32F7361.c"	T0DATA = 39;
000493   3c27     movai   0x27             	MOVAI	0x27
000494   579b     movra   0x19b            	MOVRA	_T0DATA
                                           ;	.line	233; "MC32F7361.c"	}
000495   000c     return                   	RETURN	
                                           ; exit point of _timer0_pwm_set_low_feq
                                           
                                           ;***
                                           ;  pBlock Stats: dbName = C
                                           ;***
                                           ;entry:  _IO_Init	;Function start
                                           ; 2 exit points
                                           ;has an exit
                                           ;; Starting pCode block
                                           _IO_Init	;Function start
                                           ; 2 exit points
                                           ;	.line	202; "MC32F7361.c"	IOP0 = 0x00;   // io
000496   7790     clrr    0x190            	CLRR	_IOP0
                                           ;	.line	203; "MC32F7361.c"	OEP0 = 0x3F;   // io 1:out  0:in
000497   3c3f     movai   0x3f             	MOVAI	0x3f
000498   5791     movra   0x191            	MOVRA	_OEP0
                                           ;	.line	204; "MC32F7361.c"	PUP0 = 0x00;   // io   1:enable  0:disable
000499   7792     clrr    0x192            	CLRR	_PUP0
                                           ;	.line	205; "MC32F7361.c"	PDP0 = 0x00;   // io   1:enable  0:disable
00049a   7793     clrr    0x193            	CLRR	_PDP0
                                           ;	.line	206; "MC32F7361.c"	P0ADCR = 0x00; // io  1:  0:io
00049b   77b6     clrr    0x1b6            	CLRR	_P0ADCR
                                           ;	.line	208; "MC32F7361.c"	IOP1 = 0x00;   // io
00049c   7794     clrr    0x194            	CLRR	_IOP1
                                           ;	.line	209; "MC32F7361.c"	OEP1 = 0xFF;   // io 1:out  0:in
00049d   3cff     movai   0xff             	MOVAI	0xff
00049e   5795     movra   0x195            	MOVRA	_OEP1
                                           ;	.line	210; "MC32F7361.c"	PUP1 = 0x00;   // io   1:enable  0:disable
00049f   7796     clrr    0x196            	CLRR	_PUP1
                                           ;	.line	211; "MC32F7361.c"	PDP1 = 0x00;   // io   1:enable  0:disable
0004a0   7797     clrr    0x197            	CLRR	_PDP1
                                           ;	.line	212; "MC32F7361.c"	P1ADCR = 0x00; // io  1:  0:io
0004a1   77b7     clrr    0x1b7            	CLRR	_P1ADCR
                                           ;	.line	214; "MC32F7361.c"	IOP2 = 0x00; // io
0004a2   77b8     clrr    0x1b8            	CLRR	_IOP2
                                           ;	.line	215; "MC32F7361.c"	OEP2 = 0x0F; // io 1:out  0:in
0004a3   3c0f     movai   0xf              	MOVAI	0x0f
0004a4   57b9     movra   0x1b9            	MOVRA	_OEP2
                                           ;	.line	216; "MC32F7361.c"	PUP2 = 0x00; // io   1:enable  0:disable
0004a5   77ba     clrr    0x1ba            	CLRR	_PUP2
                                           ;	.line	217; "MC32F7361.c"	PDP2 = 0x00; // io   1:enable  0:disablea
0004a6   77bb     clrr    0x1bb            	CLRR	_PDP2
                                           ;	.line	219; "MC32F7361.c"	PMOD = 0x00;  // P00P01P13 io
0004a7   77bc     clrr    0x1bc            	CLRR	_PMOD
                                           ;	.line	220; "MC32F7361.c"	DRVCR = 0x80; // 
0004a8   3c80     movai   0x80             	MOVAI	0x80
0004a9   578c     movra   0x18c            	MOVRA	_DRVCR
                                           ;	.line	221; "MC32F7361.c"	}
0004aa   000c     return                   	RETURN	
                                           ; exit point of _IO_Init
                                           
                                           ;***
                                           ;  pBlock Stats: dbName = C
                                           ;***
                                           ;entry:  _CLR_RAM	;Function start
                                           ; 2 exit points
                                           ;has an exit
                                           ;; Starting pCode block
                                           _CLR_RAM	;Function start
                                           ; 2 exit points
                                           ;	.line	185; "MC32F7361.c"	for (FSR0 = 0; FSR0 < 0xff; FSR0++)
0004ab   7784     clrr    0x184            	CLRR	_FSR0
                                           ;;unsigned compare: left < lit(0xFF=255), size=1
                                           _00118_DS_
0004ac   3cff     movai   0xff             	MOVAI	0xff
0004ad   4984     rsubar  0x184            	RSUBAR	_FSR0
0004ae   f187     jbclr   0x187, 0         	JBCLR	PFLAG,0
0004af   a4b3     goto    0x4b3            	GOTO	_00116_DS_
                                           ;;genSkipc:3291: created from rifx:013B5EFC
                                           ;	.line	187; "MC32F7361.c"	INDF0 = 0x00;
0004b0   7780     clrr    0x180            	CLRR	_INDF0
                                           ;	.line	185; "MC32F7361.c"	for (FSR0 = 0; FSR0 < 0xff; FSR0++)
0004b1   6784     incr    0x184            	INCR	_FSR0
0004b2   a4ac     goto    0x4ac            	GOTO	_00118_DS_
                                           _00116_DS_
                                           ;	.line	190; "MC32F7361.c"	FSR0 = 0xFF;
0004b3   3cff     movai   0xff             	MOVAI	0xff
0004b4   5784     movra   0x184            	MOVRA	_FSR0
                                           ;	.line	191; "MC32F7361.c"	INDF0 = 0x00;
0004b5   7780     clrr    0x180            	CLRR	_INDF0
                                           ;	.line	192; "MC32F7361.c"	}
0004b6   000c     return                   	RETURN	
                                           ; exit point of _CLR_RAM
                                           
                                           ;***
                                           ;  pBlock Stats: dbName = C
                                           ;***
                                           ;entry:  _delay_ms	;Function start
                                           ; 2 exit points
                                           ;has an exit
                                           ;7 compiler assigned registers:
                                           ;   r0x101D
                                           ;   STK00
                                           ;   r0x101E
                                           ;   r0x101F
                                           ;   r0x1020
                                           ;   r0x1021
                                           ;   r0x1022
                                           ;; Starting pCode block
                                           _delay_ms	;Function start
                                           ; 2 exit points
                                           ;	.line	286; "user.h"	void delay_ms(u16 xms)
0004b7   5608     movra   0x8              	MOVRA	r0x101D
0004b8   5806     movar   0x6              	MOVAR	STK00
0004b9   5607     movra   0x7              	MOVRA	r0x101E
                                           _00108_DS_
                                           ;	.line	288; "user.h"	while (xms)
0004ba   5807     movar   0x7              	MOVAR	r0x101E
0004bb   5c08     orar    0x8              	ORAR	r0x101D
0004bc   f587     jbclr   0x187, 0x2       	JBCLR	PFLAG,2
0004bd   a4d5     goto    0x4d5            	GOTO	_00111_DS_
                                           ;	.line	292; "user.h"	while (i--)
0004be   3c21     movai   0x21             	MOVAI	0x21
0004bf   5609     movra   0x9              	MOVRA	r0x101F
0004c0   3c01     movai   0x1              	MOVAI	0x01
0004c1   560a     movra   0xa              	MOVRA	r0x1020
                                           _00105_DS_
0004c2   5809     movar   0x9              	MOVAR	r0x101F
0004c3   560b     movra   0xb              	MOVRA	r0x1021
0004c4   580a     movar   0xa              	MOVAR	r0x1020
0004c5   560c     movra   0xc              	MOVRA	r0x1022
0004c6   3cff     movai   0xff             	MOVAI	0xff
0004c7   7e09     addra   0x9              	ADDRA	r0x101F
0004c8   e187     jbset   0x187, 0         	JBSET	PFLAG,0
0004c9   6e0a     decr    0xa              	DECR	r0x1020
0004ca   580b     movar   0xb              	MOVAR	r0x1021
0004cb   5c0c     orar    0xc              	ORAR	r0x1022
0004cc   f587     jbclr   0x187, 0x2       	JBCLR	PFLAG,2
0004cd   a4d0     goto    0x4d0            	GOTO	_00107_DS_
                                           ;	.line	294; "user.h"	Nop();
0004ce   0000     nop                      	nop	
0004cf   a4c2     goto    0x4c2            	GOTO	_00105_DS_
                                           _00107_DS_
                                           ;	.line	296; "user.h"	xms--; //  --while()
0004d0   3cff     movai   0xff             	MOVAI	0xff
0004d1   7e07     addra   0x7              	ADDRA	r0x101E
0004d2   e187     jbset   0x187, 0         	JBSET	PFLAG,0
0004d3   6e08     decr    0x8              	DECR	r0x101D
0004d4   a4ba     goto    0x4ba            	GOTO	_00108_DS_
                                           _00111_DS_
                                           ;	.line	302; "user.h"	}
0004d5   000c     return                   	RETURN	
                                           ; exit point of _delay_ms
                                           
                                           
                                           ;	code size estimation:
                                           ;	 1222+    0 =  1222 instructions ( 2444 byte)
                                           
                                           	end
                                           ;--------------------------------------------------------
                                           ; File Created by SN-SDCC : SinoMCU ANSI-C Compiler
                                           ; Version 2.0.0 (Dec 11 2019) (MINGW32)
                                           ; This file was generated Tue Jul 22 17:58:04 2025
                                           ;--------------------------------------------------------
                                           ; MC32 port for the RISC core
                                           ;--------------------------------------------------------
                                           ;	.file	"MC32F7361.c"
                                           	list	p=7361
                                           	radix dec
                                           	include "7361.inc"
                                           ;--------------------------------------------------------
                                           ; external declarations
                                           ;--------------------------------------------------------
                                           	extern	_led_init
                                           	extern	_led_all_off
                                           	extern	_led_status_clear
                                           	extern	_led_mode_alter
                                           	extern	_led_handle
                                           	extern	_set_led_mode_status
                                           	extern	__mullong
                                           	extern	__divulong
                                           	extern	__mulint
                                           	extern	__divuint
                                           	extern	_INDF0bits
                                           	extern	_INDF1bits
                                           	extern	_INDF2bits
                                           	extern	_HIBYTEbits
                                           	extern	_FSR0bits
                                           	extern	_FSR1bits
                                           	extern	_PCLbits
                                           	extern	_PFLAGbits
                                           	extern	_MCRbits
                                           	extern	_INDF3bits
                                           	extern	_INTEbits
                                           	extern	_INTFbits
                                           	extern	_DRVCRbits
                                           	extern	_P0KBCRbits
                                           	extern	_P1KBCRbits
                                           	extern	_P2KBCRbits
                                           	extern	_IOP0bits
                                           	extern	_OEP0bits
                                           	extern	_PUP0bits
                                           	extern	_PDP0bits
                                           	extern	_IOP1bits
                                           	extern	_OEP1bits
                                           	extern	_PUP1bits
                                           	extern	_PDP1bits
                                           	extern	_T0CRbits
                                           	extern	_T0CNTbits
                                           	extern	_T0LOADbits
                                           	extern	_T0DATAbits
                                           	extern	_T1CRbits
                                           	extern	_T1CNTbits
                                           	extern	_T1LOADbits
                                           	extern	_T1DATAbits
                                           	extern	_T2CRbits
                                           	extern	_T2CNTbits
                                           	extern	_T2LOADbits
                                           	extern	_T2DATAbits
                                           	extern	_T3CRbits
                                           	extern	_T3CNTbits
                                           	extern	_T3LOADbits
                                           	extern	_PWM0DRbits
                                           	extern	_PWM1DRbits
                                           	extern	_PWM2DRbits
                                           	extern	_PWMCR0bits
                                           	extern	_PWMCR1bits
                                           	extern	_OSCMRbits
                                           	extern	_LVDCRbits
                                           	extern	_ADCR0bits
                                           	extern	_ADCR1bits
                                           	extern	_ADCR2bits
                                           	extern	_OSADJCRbits
                                           	extern	_ADRHbits
                                           	extern	_ADRLbits
                                           	extern	_P0ADCRbits
                                           	extern	_P1ADCRbits
                                           	extern	_IOP2bits
                                           	extern	_OEP2bits
                                           	extern	_PUP2bits
                                           	extern	_PDP2bits
                                           	extern	_PMODbits
                                           	extern	_PWMCR3bits
                                           	extern	_PWMCR2bits
                                           	extern	_PFRCCRbits
                                           	extern	_PFRCCALbits
                                           	extern	_EECRbits
                                           	extern	_EEPRbits
                                           	extern	_EEARbits
                                           	extern	_EEDRHbits
                                           	extern	_EEDRLbits
                                           	extern	_DBGCRbits
                                           	extern	_DBGPRbits
                                           	extern	_HIRCCALbits
                                           	extern	_INDF0
                                           	extern	_INDF1
                                           	extern	_INDF2
                                           	extern	_HIBYTE
                                           	extern	_FSR0
                                           	extern	_FSR1
                                           	extern	_PCL
                                           	extern	_PFLAG
                                           	extern	_MCR
                                           	extern	_INDF3
                                           	extern	_INTE
                                           	extern	_INTF
                                           	extern	_DRVCR
                                           	extern	_P0KBCR
                                           	extern	_P1KBCR
                                           	extern	_P2KBCR
                                           	extern	_IOP0
                                           	extern	_OEP0
                                           	extern	_PUP0
                                           	extern	_PDP0
                                           	extern	_IOP1
                                           	extern	_OEP1
                                           	extern	_PUP1
                                           	extern	_PDP1
                                           	extern	_T0CR
                                           	extern	_T0CNT
                                           	extern	_T0LOAD
                                           	extern	_T0DATA
                                           	extern	_T1CR
                                           	extern	_T1CNT
                                           	extern	_T1LOAD
                                           	extern	_T1DATA
                                           	extern	_T2CR
                                           	extern	_T2CNT
                                           	extern	_T2LOAD
                                           	extern	_T2DATA
                                           	extern	_T3CR
                                           	extern	_T3CNT
                                           	extern	_T3LOAD
                                           	extern	_PWM0DR
                                           	extern	_PWM1DR
                                           	extern	_PWM2DR
                                           	extern	_PWMCR0
                                           	extern	_PWMCR1
                                           	extern	_OSCMR
                                           	extern	_LVDCR
                                           	extern	_ADCR0
                                           	extern	_ADCR1
                                           	extern	_ADCR2
                                           	extern	_OSADJCR
                                           	extern	_ADRH
                                           	extern	_ADRL
                                           	extern	_P0ADCR
                                           	extern	_P1ADCR
                                           	extern	_IOP2
                                           	extern	_OEP2
                                           	extern	_PUP2
                                           	extern	_PDP2
                                           	extern	_PMOD
                                           	extern	_PWMCR3
                                           	extern	_PWMCR2
                                           	extern	_PFRCCR
                                           	extern	_PFRCCAL
                                           	extern	_EECR
                                           	extern	_EEPR
                                           	extern	_EEAR
                                           	extern	_EEDRH
                                           	extern	_EEDRL
                                           	extern	_DBGCR
                                           	extern	_DBGPR
                                           	extern	_HIRCCAL
                                           	extern	__gptrget2
                                           ;--------------------------------------------------------
                                           ; global declarations
                                           ;--------------------------------------------------------
                                           	global	_light_handle
                                           	global	_light_init
                                           	global	_light_blink
                                           	global	_delay_ms
                                           	global	_CLR_RAM
                                           	global	_IO_Init
                                           	global	_timer0_pwm_set_low_feq
                                           	global	_timer0_pwm_set_high_feq
                                           	global	_timer0_pwm_disable
                                           	global	_timer1_config
                                           	global	_timer2_pwm_config
                                           	global	_timer2_pwm_set_feq
                                           	global	_adc_config
                                           	global	_adc_sel_ref_voltage
                                           	global	_adc_sel_pin
                                           	global	_adc_getval
                                           	global	_adc_update_bat_adc_val
                                           	global	_adc_update_charge_adc_val
                                           	global	_adc_update_current_adc_val
                                           	global	_sys_init
                                           	global	_charge_handle
                                           	global	_main
                                           	global	_int_isr
                                           	global	_abuf
                                           	global	_statusbuf
                                           	global	_flag1
                                           	global	_flag2
                                           	global	_flag3
                                           	global	_ir_data
                                           	global	_bat_adc_val
                                           	global	_charging_adc_val
                                           	global	_current_adc_val
                                           	global	_cur_charging_pwm_status
                                           	global	_cur_charge_phase
                                           	global	_cur_initial_discharge_gear
                                           	global	_cur_discharge_rate
                                           	global	_cur_led_mode
                                           	global	_cur_led_gear
                                           	global	_last_led_gear
                                           	global	_cur_led_gear_in_charging
                                           	global	_flag_led_setting_mode_exit_times_come
                                           	global	_led_setting_mode_exit_times_cnt
                                           	global	_led_struction_mode_exit_times_cnt
                                           	global	_light_adjust_time_cnt
                                           	global	_light_ctl_phase_in_rate_1
                                           	global	_cur_light_pwm_duty_val
                                           	global	_flag_is_light_adjust_time_come
                                           	global	_flag_is_light_pwm_duty_val_adjust_time_come
                                           	global	_flag_is_ctl_light_blink
                                           	global	_light_ctl_blink_times
                                           	global	_expect_light_pwm_duty_val
                                           	global	_light_auto_shutdown_time_cnt
                                           	global	_light_pwm_sub_table
                                           	global	_light_pwm_add_table
                                           	global	_light_pwm_duty_init_val_table
                                           
                                           	global STK06
                                           	global STK05
                                           	global STK04
                                           	global STK03
                                           	global STK02
                                           	global STK01
                                           	global STK00
                                           
                                           sharebank udata_ovr 0x0000
                                           STK06	res 1
                                           STK05	res 1
                                           STK04	res 1
                                           STK03	res 1
                                           STK02	res 1
                                           STK01	res 1
                                           STK00	res 1
                                           
                                           ;--------------------------------------------------------
                                           ; global definitions
                                           ;--------------------------------------------------------
                                           UD_MC32F7361_0	udata
                                           _abuf	res	1
                                           
                                           UD_MC32F7361_1	udata
                                           _statusbuf	res	1
                                           
                                           UD_MC32F7361_2	udata
                                           _flag1	res	1
                                           
                                           UD_MC32F7361_3	udata
                                           _flag2	res	1
                                           
                                           UD_MC32F7361_4	udata
                                           _flag3	res	1
                                           
                                           UD_MC32F7361_5	udata
                                           _bat_adc_val	res	2
                                           
                                           UD_MC32F7361_6	udata
                                           _charging_adc_val	res	2
                                           
                                           UD_MC32F7361_7	udata
                                           _current_adc_val	res	2
                                           
                                           UD_MC32F7361_8	udata
                                           _cur_charging_pwm_status	res	1
                                           
                                           UD_MC32F7361_9	udata
                                           _cur_charge_phase	res	1
                                           
                                           UD_MC32F7361_10	udata
                                           _cur_initial_discharge_gear	res	1
                                           
                                           UD_MC32F7361_11	udata
                                           _cur_discharge_rate	res	1
                                           
                                           UD_MC32F7361_12	udata
                                           _cur_led_mode	res	1
                                           
                                           UD_MC32F7361_13	udata
                                           _cur_led_gear	res	1
                                           
                                           UD_MC32F7361_14	udata
                                           _last_led_gear	res	1
                                           
                                           UD_MC32F7361_15	udata
                                           _cur_led_gear_in_charging	res	1
                                           
                                           ;--------------------------------------------------------
                                           ; absolute symbol definitions
                                           ;--------------------------------------------------------
                                           ;--------------------------------------------------------
                                           ; compiler-defined variables
                                           ;--------------------------------------------------------
                                           UDL_MC32F7361_0	udata
                                           r0x101E	res	1
                                           r0x101D	res	1
                                           r0x101F	res	1
                                           r0x1020	res	1
                                           r0x1021	res	1
                                           r0x1022	res	1
                                           r0x1023	res	1
                                           r0x1024	res	1
                                           r0x1025	res	1
                                           r0x1026	res	1
                                           r0x1027	res	1
                                           r0x1029	res	1
                                           r0x1028	res	1
                                           r0x102A	res	1
                                           r0x102B	res	1
                                           r0x102C	res	1
                                           r0x102D	res	1
                                           r0x102E	res	1
                                           r0x102F	res	1
                                           r0x1030	res	1
                                           r0x1031	res	1
                                           r0x1032	res	1
                                           r0x1033	res	1
                                           r0x1034	res	1
                                           r0x1035	res	1
                                           r0x1036	res	1
                                           r0x1037	res	1
                                           r0x1038	res	1
                                           r0x103F	res	1
                                           r0x1040	res	1
                                           r0x1041	res	1
                                           r0x1042	res	1
                                           r0x1039	res	1
                                           r0x103A	res	1
                                           r0x103B	res	1
                                           r0x103C	res	1
                                           r0x103E	res	1
                                           r0x103D	res	1
                                           r0x1043	res	1
                                           r0x1044	res	1
                                           _charge_handle_trickle_charge_cnt_131072_59	res	1
                                           _charge_handle_pwm_duty_131072_59	res	1
                                           _int_isr_ir_level_cnt_196608_127	res	2
                                           _int_isr___ir_data_196608_127	res	1
                                           _int_isr_cnt_196608_143	res	1
                                           ;--------------------------------------------------------
                                           ; initialized data
                                           ;--------------------------------------------------------
                                           
                                           ID_MC32F7361_0	idata
                                           _ir_data
                                           	db	0x00
                                           
                                           
                                           ID_MC32F7361_1	idata
                                           _flag_led_setting_mode_exit_times_come
                                           	db	0x00
                                           
                                           
                                           ID_MC32F7361_2	idata
                                           _led_setting_mode_exit_times_cnt
                                           	db	0x00, 0x00
                                           
                                           
                                           ID_MC32F7361_3	idata
                                           _led_struction_mode_exit_times_cnt
                                           	db	0x00, 0x00
                                           
                                           
                                           ID_MC32F7361_4	idata
                                           _light_adjust_time_cnt
                                           	db	0x00, 0x00, 0x00, 0x00
                                           
                                           
                                           ID_MC32F7361_5	idata
                                           _light_ctl_phase_in_rate_1
                                           	db	0x01
                                           
                                           
                                           ID_MC32F7361_6	idata
                                           _cur_light_pwm_duty_val
                                           	db	0x00, 0x00
                                           
                                           
                                           ID_MC32F7361_7	idata
                                           _flag_is_light_adjust_time_come
                                           	db	0x00
                                           
                                           
                                           ID_MC32F7361_8	idata
                                           _flag_is_light_pwm_duty_val_adjust_time_come
                                           	db	0x00
                                           
                                           
                                           ID_MC32F7361_9	idata
                                           _flag_is_ctl_light_blink
                                           	db	0x00
                                           
                                           
                                           ID_MC32F7361_10	idata
                                           _light_ctl_blink_times
                                           	db	0x00
                                           
                                           
                                           ID_MC32F7361_11	idata
                                           _expect_light_pwm_duty_val
                                           	db	0x00, 0x00
                                           
                                           
                                           ID_MC32F7361_12	idata
                                           _light_auto_shutdown_time_cnt
                                           	db	0x00, 0x00, 0x00, 0x00
                                           
                                           
                                           ID_MC32F7361_13	code
                                           _light_pwm_sub_table
                                           	dw 0xd4
                                           	dw 0x00
                                           	dw 0xbb
                                           	dw 0x00
                                           	dw 0xa1
                                           	dw 0x00
                                           	dw 0x88
                                           	dw 0x00
                                           	dw 0x6f
                                           	dw 0x00
                                           	dw 0x56
                                           	dw 0x00
                                           	dw 0x3c
                                           	dw 0x00
                                           	dw 0x23
                                           	dw 0x00
                                           	dw 0x0c
                                           	dw 0x00
                                           
                                           
                                           ID_MC32F7361_14	code
                                           _light_pwm_add_table
                                           	dw 0x0c
                                           	dw 0x00
                                           	dw 0x25
                                           	dw 0x00
                                           	dw 0x3e
                                           	dw 0x00
                                           	dw 0x58
                                           	dw 0x00
                                           	dw 0x71
                                           	dw 0x00
                                           	dw 0x8a
                                           	dw 0x00
                                           	dw 0xa6
                                           	dw 0x00
                                           	dw 0xbd
                                           	dw 0x00
                                           	dw 0xd4
                                           	dw 0x00
                                           
                                           
                                           ID_MC32F7361_15	code
                                           _light_pwm_duty_init_val_table
                                           	dw 0xd4
                                           	dw 0x00
                                           	dw 0xbc
                                           	dw 0x00
                                           	dw 0xa3
                                           	dw 0x00
                                           	dw 0x90
                                           	dw 0x00
                                           	dw 0x7e
                                           	dw 0x00
                                           
                                           
                                           ;@Allocation info for local variables in function 'delay_ms'
                                           ;@delay_ms led_init                  Allocated to registers ;size:2
                                           ;@delay_ms led_all_off               Allocated to registers ;size:2
                                           ;@delay_ms led_status_clear          Allocated to registers ;size:2
                                           ;@delay_ms led_mode_alter            Allocated to registers ;size:2
                                           ;@delay_ms led_handle                Allocated to registers ;size:2
                                           ;@delay_ms set_led_mode_status       Allocated to registers ;size:2
                                           ;@delay_ms light_init                Allocated to registers ;size:2
                                           ;@delay_ms light_blink               Allocated to registers ;size:2
                                           ;@delay_ms light_handle              Allocated to registers ;size:2
                                           ;@delay_ms INDF0bits                 Allocated to registers ;size:1
                                           ;@delay_ms INDF1bits                 Allocated to registers ;size:1
                                           ;@delay_ms INDF2bits                 Allocated to registers ;size:1
                                           ;@delay_ms HIBYTEbits                Allocated to registers ;size:1
                                           ;@delay_ms FSR0bits                  Allocated to registers ;size:1
                                           ;@delay_ms FSR1bits                  Allocated to registers ;size:1
                                           ;@delay_ms PCLbits                   Allocated to registers ;size:1
                                           ;@delay_ms PFLAGbits                 Allocated to registers ;size:1
                                           ;@delay_ms MCRbits                   Allocated to registers ;size:1
                                           ;@delay_ms INDF3bits                 Allocated to registers ;size:1
                                           ;@delay_ms INTEbits                  Allocated to registers ;size:1
                                           ;@delay_ms INTFbits                  Allocated to registers ;size:1
                                           ;@delay_ms DRVCRbits                 Allocated to registers ;size:1
                                           ;@delay_ms P0KBCRbits                Allocated to registers ;size:1
                                           ;@delay_ms P1KBCRbits                Allocated to registers ;size:1
                                           ;@delay_ms P2KBCRbits                Allocated to registers ;size:1
                                           ;@delay_ms IOP0bits                  Allocated to registers ;size:1
                                           ;@delay_ms OEP0bits                  Allocated to registers ;size:1
                                           ;@delay_ms PUP0bits                  Allocated to registers ;size:1
                                           ;@delay_ms PDP0bits                  Allocated to registers ;size:1
                                           ;@delay_ms IOP1bits                  Allocated to registers ;size:1
                                           ;@delay_ms OEP1bits                  Allocated to registers ;size:1
                                           ;@delay_ms PUP1bits                  Allocated to registers ;size:1
                                           ;@delay_ms PDP1bits                  Allocated to registers ;size:1
                                           ;@delay_ms T0CRbits                  Allocated to registers ;size:1
                                           ;@delay_ms T0CNTbits                 Allocated to registers ;size:1
                                           ;@delay_ms T0LOADbits                Allocated to registers ;size:1
                                           ;@delay_ms T0DATAbits                Allocated to registers ;size:1
                                           ;@delay_ms T1CRbits                  Allocated to registers ;size:1
                                           ;@delay_ms T1CNTbits                 Allocated to registers ;size:1
                                           ;@delay_ms T1LOADbits                Allocated to registers ;size:1
                                           ;@delay_ms T1DATAbits                Allocated to registers ;size:1
                                           ;@delay_ms T2CRbits                  Allocated to registers ;size:1
                                           ;@delay_ms T2CNTbits                 Allocated to registers ;size:1
                                           ;@delay_ms T2LOADbits                Allocated to registers ;size:1
                                           ;@delay_ms T2DATAbits                Allocated to registers ;size:1
                                           ;@delay_ms T3CRbits                  Allocated to registers ;size:1
                                           ;@delay_ms T3CNTbits                 Allocated to registers ;size:1
                                           ;@delay_ms T3LOADbits                Allocated to registers ;size:1
                                           ;@delay_ms PWM0DRbits                Allocated to registers ;size:1
                                           ;@delay_ms PWM1DRbits                Allocated to registers ;size:1
                                           ;@delay_ms PWM2DRbits                Allocated to registers ;size:1
                                           ;@delay_ms PWMCR0bits                Allocated to registers ;size:1
                                           ;@delay_ms PWMCR1bits                Allocated to registers ;size:1
                                           ;@delay_ms OSCMRbits                 Allocated to registers ;size:1
                                           ;@delay_ms LVDCRbits                 Allocated to registers ;size:1
                                           ;@delay_ms ADCR0bits                 Allocated to registers ;size:1
                                           ;@delay_ms ADCR1bits                 Allocated to registers ;size:1
                                           ;@delay_ms ADCR2bits                 Allocated to registers ;size:1
                                           ;@delay_ms OSADJCRbits               Allocated to registers ;size:1
                                           ;@delay_ms ADRHbits                  Allocated to registers ;size:1
                                           ;@delay_ms ADRLbits                  Allocated to registers ;size:1
                                           ;@delay_ms P0ADCRbits                Allocated to registers ;size:1
                                           ;@delay_ms P1ADCRbits                Allocated to registers ;size:1
                                           ;@delay_ms IOP2bits                  Allocated to registers ;size:1
                                           ;@delay_ms OEP2bits                  Allocated to registers ;size:1
                                           ;@delay_ms PUP2bits                  Allocated to registers ;size:1
                                           ;@delay_ms PDP2bits                  Allocated to registers ;size:1
                                           ;@delay_ms PMODbits                  Allocated to registers ;size:1
                                           ;@delay_ms PWMCR3bits                Allocated to registers ;size:1
                                           ;@delay_ms PWMCR2bits                Allocated to registers ;size:1
                                           ;@delay_ms PFRCCRbits                Allocated to registers ;size:1
                                           ;@delay_ms PFRCCALbits               Allocated to registers ;size:1
                                           ;@delay_ms EECRbits                  Allocated to registers ;size:1
                                           ;@delay_ms EEPRbits                  Allocated to registers ;size:1
                                           ;@delay_ms EEARbits                  Allocated to registers ;size:1
                                           ;@delay_ms EEDRHbits                 Allocated to registers ;size:1
                                           ;@delay_ms EEDRLbits                 Allocated to registers ;size:1
                                           ;@delay_ms DBGCRbits                 Allocated to registers ;size:1
                                           ;@delay_ms DBGPRbits                 Allocated to registers ;size:1
                                           ;@delay_ms HIRCCALbits               Allocated to registers ;size:1
                                           ;@delay_ms abuf                      Allocated to registers ;size:1
                                           ;@delay_ms statusbuf                 Allocated to registers ;size:1
                                           ;@delay_ms flag1                     Allocated to registers ;size:1
                                           ;@delay_ms flag2                     Allocated to registers ;size:1
                                           ;@delay_ms flag3                     Allocated to registers ;size:1
                                           ;@delay_ms xms                       Allocated to registers ;size:2
                                           ;@delay_ms i                         Allocated to registers r0x101F r0x1020 ;size:2
                                           ;@delay_ms INDF0                     Allocated to registers ;size:1
                                           ;@delay_ms INDF1                     Allocated to registers ;size:1
                                           ;@delay_ms INDF2                     Allocated to registers ;size:1
                                           ;@delay_ms HIBYTE                    Allocated to registers ;size:1
                                           ;@delay_ms FSR0                      Allocated to registers ;size:1
                                           ;@delay_ms FSR1                      Allocated to registers ;size:1
                                           ;@delay_ms PCL                       Allocated to registers ;size:1
                                           ;@delay_ms PFLAG                     Allocated to registers ;size:1
                                           ;@delay_ms MCR                       Allocated to registers ;size:1
                                           ;@delay_ms INDF3                     Allocated to registers ;size:1
                                           ;@delay_ms INTE                      Allocated to registers ;size:1
                                           ;@delay_ms INTF                      Allocated to registers ;size:1
                                           ;@delay_ms DRVCR                     Allocated to registers ;size:1
                                           ;@delay_ms P0KBCR                    Allocated to registers ;size:1
                                           ;@delay_ms P1KBCR                    Allocated to registers ;size:1
                                           ;@delay_ms P2KBCR                    Allocated to registers ;size:1
                                           ;@delay_ms IOP0                      Allocated to registers ;size:1
                                           ;@delay_ms OEP0                      Allocated to registers ;size:1
                                           ;@delay_ms PUP0                      Allocated to registers ;size:1
                                           ;@delay_ms PDP0                      Allocated to registers ;size:1
                                           ;@delay_ms IOP1                      Allocated to registers ;size:1
                                           ;@delay_ms OEP1                      Allocated to registers ;size:1
                                           ;@delay_ms PUP1                      Allocated to registers ;size:1
                                           ;@delay_ms PDP1                      Allocated to registers ;size:1
                                           ;@delay_ms T0CR                      Allocated to registers ;size:1
                                           ;@delay_ms T0CNT                     Allocated to registers ;size:1
                                           ;@delay_ms T0LOAD                    Allocated to registers ;size:1
                                           ;@delay_ms T0DATA                    Allocated to registers ;size:1
                                           ;@delay_ms T1CR                      Allocated to registers ;size:1
                                           ;@delay_ms T1CNT                     Allocated to registers ;size:1
                                           ;@delay_ms T1LOAD                    Allocated to registers ;size:1
                                           ;@delay_ms T1DATA                    Allocated to registers ;size:1
                                           ;@delay_ms T2CR                      Allocated to registers ;size:1
                                           ;@delay_ms T2CNT                     Allocated to registers ;size:1
                                           ;@delay_ms T2LOAD                    Allocated to registers ;size:1
                                           ;@delay_ms T2DATA                    Allocated to registers ;size:1
                                           ;@delay_ms T3CR                      Allocated to registers ;size:1
                                           ;@delay_ms T3CNT                     Allocated to registers ;size:1
                                           ;@delay_ms T3LOAD                    Allocated to registers ;size:1
                                           ;@delay_ms PWM0DR                    Allocated to registers ;size:1
                                           ;@delay_ms PWM1DR                    Allocated to registers ;size:1
                                           ;@delay_ms PWM2DR                    Allocated to registers ;size:1
                                           ;@delay_ms PWMCR0                    Allocated to registers ;size:1
                                           ;@delay_ms PWMCR1                    Allocated to registers ;size:1
                                           ;@delay_ms OSCMR                     Allocated to registers ;size:1
                                           ;@delay_ms LVDCR                     Allocated to registers ;size:1
                                           ;@delay_ms ADCR0                     Allocated to registers ;size:1
                                           ;@delay_ms ADCR1                     Allocated to registers ;size:1
                                           ;@delay_ms ADCR2                     Allocated to registers ;size:1
                                           ;@delay_ms OSADJCR                   Allocated to registers ;size:1
                                           ;@delay_ms ADRH                      Allocated to registers ;size:1
                                           ;@delay_ms ADRL                      Allocated to registers ;size:1
                                           ;@delay_ms P0ADCR                    Allocated to registers ;size:1
                                           ;@delay_ms P1ADCR                    Allocated to registers ;size:1
                                           ;@delay_ms IOP2                      Allocated to registers ;size:1
                                           ;@delay_ms OEP2                      Allocated to registers ;size:1
                                           ;@delay_ms PUP2                      Allocated to registers ;size:1
                                           ;@delay_ms PDP2                      Allocated to registers ;size:1
                                           ;@delay_ms PMOD                      Allocated to registers ;size:1
                                           ;@delay_ms PWMCR3                    Allocated to registers ;size:1
                                           ;@delay_ms PWMCR2                    Allocated to registers ;size:1
                                           ;@delay_ms PFRCCR                    Allocated to registers ;size:1
                                           ;@delay_ms PFRCCAL                   Allocated to registers ;size:1
                                           ;@delay_ms EECR                      Allocated to registers ;size:1
                                           ;@delay_ms EEPR                      Allocated to registers ;size:1
                                           ;@delay_ms EEAR                      Allocated to registers ;size:1
                                           ;@delay_ms EEDRH                     Allocated to registers ;size:1
                                           ;@delay_ms EEDRL                     Allocated to registers ;size:1
                                           ;@delay_ms DBGCR                     Allocated to registers ;size:1
                                           ;@delay_ms DBGPR                     Allocated to registers ;size:1
                                           ;@delay_ms HIRCCAL                   Allocated to registers ;size:1
                                           ;@end Allocation info for local variables in function 'delay_ms';
                                           ;@Allocation info for local variables in function 'CLR_RAM'
                                           ;@end Allocation info for local variables in function 'CLR_RAM';
                                           ;@Allocation info for local variables in function 'IO_Init'
                                           ;@end Allocation info for local variables in function 'IO_Init';
                                           ;@Allocation info for local variables in function 'timer0_pwm_set_low_feq'
                                           ;@end Allocation info for local variables in function 'timer0_pwm_set_low_feq';
                                           ;@Allocation info for local variables in function 'timer0_pwm_set_high_feq'
                                           ;@end Allocation info for local variables in function 'timer0_pwm_set_high_feq';
                                           ;@Allocation info for local variables in function 'timer0_pwm_disable'
                                           ;@end Allocation info for local variables in function 'timer0_pwm_disable';
                                           ;@Allocation info for local variables in function 'timer1_config'
                                           ;@end Allocation info for local variables in function 'timer1_config';
                                           ;@Allocation info for local variables in function 'timer2_pwm_config'
                                           ;@end Allocation info for local variables in function 'timer2_pwm_config';
                                           ;@Allocation info for local variables in function 'timer2_pwm_set_feq'
                                           ;@end Allocation info for local variables in function 'timer2_pwm_set_feq';
                                           ;@Allocation info for local variables in function 'adc_config'
                                           ;@end Allocation info for local variables in function 'adc_config';
                                           ;@Allocation info for local variables in function 'adc_sel_ref_voltage'
                                           ;@adc_sel_ref_voltage adc_ref_voltage           Allocated to registers r0x101D ;size:1
                                           ;@end Allocation info for local variables in function 'adc_sel_ref_voltage';
                                           ;@Allocation info for local variables in function 'adc_sel_pin'
                                           ;@adc_sel_pin adc_pin                   Allocated to registers r0x1023 ;size:1
                                           ;@end Allocation info for local variables in function 'adc_sel_pin';
                                           ;@Allocation info for local variables in function 'adc_getval'
                                           ;@adc_getval adc_val_tmp               Allocated to registers r0x1021 r0x1022 ;size:2
                                           ;@adc_getval adc_val_sum               Allocated to registers r0x1021 r0x1022 r0x1028 r0x102A ;size:4
                                           ;@adc_getval get_adcmax                Allocated to registers r0x1021 r0x1022 ;size:2
                                           ;@adc_getval get_adcmin                Allocated to registers r0x1023 r0x1024 ;size:2
                                           ;@adc_getval i                         Allocated to registers r0x1025 ;size:1
                                           ;@end Allocation info for local variables in function 'adc_getval';
                                           ;@Allocation info for local variables in function 'adc_update_bat_adc_val'
                                           ;@end Allocation info for local variables in function 'adc_update_bat_adc_val';
                                           ;@Allocation info for local variables in function 'adc_update_charge_adc_val'
                                           ;@adc_update_charge_adc_val adc_ref_voltage           Allocated to registers r0x102C ;size:1
                                           ;@end Allocation info for local variables in function 'adc_update_charge_adc_val';
                                           ;@Allocation info for local variables in function 'adc_update_current_adc_val'
                                           ;@end Allocation info for local variables in function 'adc_update_current_adc_val';
                                           ;@Allocation info for local variables in function 'sys_init'
                                           ;@end Allocation info for local variables in function 'sys_init';
                                           ;@Allocation info for local variables in function 'charge_handle'
                                           ;@charge_handle pwm_duty                  Allocated to registers ;size:1
                                           ;@charge_handle trickle_charge_cnt        Allocated to registers ;size:1
                                           ;@charge_handle current                   Allocated to registers r0x1033 r0x1034 ;size:2
                                           ;@charge_handle voltage_of_bat            Allocated to registers r0x102F r0x1030 ;size:2
                                           ;@charge_handle power                     Allocated to registers r0x102F r0x1030 r0x1031 r0x1032 ;size:4
                                           ;@charge_handle expected_power            Allocated to registers r0x102D r0x102E ;size:2
                                           ;@end Allocation info for local variables in function 'charge_handle';
                                           ;@Allocation info for local variables in function 'charge_handle'
                                           ;@charge_handle pwm_duty                  Allocated to registers ;size:1
                                           ;@charge_handle trickle_charge_cnt        Allocated to registers ;size:1
                                           ;@charge_handle current                   Allocated to registers r0x1033 r0x1034 ;size:2
                                           ;@charge_handle voltage_of_bat            Allocated to registers r0x102F r0x1030 ;size:2
                                           ;@charge_handle power                     Allocated to registers r0x102F r0x1030 r0x1031 r0x1032 ;size:4
                                           ;@charge_handle expected_power            Allocated to registers r0x102D r0x102E ;size:2
                                           ;@end Allocation info for local variables in function 'charge_handle';
                                           ;@Allocation info for local variables in function 'light_blink'
                                           ;@light_blink blink_cnt                 Allocated to registers ;size:1
                                           ;@end Allocation info for local variables in function 'light_blink';
                                           ;@Allocation info for local variables in function 'light_init'
                                           ;@end Allocation info for local variables in function 'light_init';
                                           ;@Allocation info for local variables in function 'light_handle'
                                           ;@end Allocation info for local variables in function 'light_handle';
                                           ;@Allocation info for local variables in function 'main'
                                           ;@end Allocation info for local variables in function 'main';
                                           ;@Allocation info for local variables in function 'int_isr'
                                           ;@int_isr ir_level_cnt              Allocated to registers ;size:2
                                           ;@int_isr __ir_data                 Allocated to registers ;size:1
                                           ;@int_isr cnt                       Allocated to registers ;size:1
                                           ;@end Allocation info for local variables in function 'int_isr';
                                           
                                           ;--------------------------------------------------------
                                           ; overlayable items in internal ram 
                                           ;--------------------------------------------------------
                                           ;	udata_ovr
                                           ;--------------------------------------------------------
                                           ; reset vector 
                                           ;--------------------------------------------------------
                                           STARTUP	code 0x0000
                                           	goto	_main
                                           ;--------------------------------------------------------
                                           ; interrupt and initialization code
                                           ;--------------------------------------------------------
                                           c_interrupt	code	0x8
                                           __sdcc_interrupt
                                           ;***
                                           ;  pBlock Stats: dbName = I
                                           ;***
                                           ;entry:  _int_isr	;Function start
                                           ; 0 exit points
                                           ;2 compiler assigned registers:
                                           ;   r0x1043
                                           ;   r0x1044
                                           ;; Starting pCode block
                                           _int_isr	;Function start
                                           ; 0 exit points
                                           ;	.line	1275; "MC32F7361.c"	__endasm;
                                           	;
                                           	movra	_abuf;
                                           	swapar	_PFLAG;
                                           	movra	_statusbuf;
                                           	
                                           ;	.line	1277; "MC32F7361.c"	if (T1IF & T1IE) // 1 100us
                                           	CLRR	r0x1043
                                           	JBCLR	_INTFbits,1
                                           	INCR	r0x1043
                                           	CLRR	r0x1044
                                           	JBCLR	_INTEbits,1
                                           	INCR	r0x1044
                                           	MOVAR	r0x1044
                                           	ANDRA	r0x1043
                                           	MOVAI	0x00
                                           	ORAR	r0x1043
                                           	JBCLR	PFLAG,2
                                           	GOTO	_00624_DS_
                                           ;;swapping arguments (AOP_TYPEs 1/3)
                                           ;;unsigned compare: left >= lit(0x515=1301), size=2
                                           ;	.line	1292; "MC32F7361.c"	if (ir_level_cnt <= 1300)
                                           	MOVAI	0x05
                                           	RSUBAR	(_int_isr_ir_level_cnt_196608_127 + 1)
                                           	JBSET	PFLAG,2
                                           	GOTO	_00711_DS_
                                           	MOVAI	0x15
                                           	RSUBAR	_int_isr_ir_level_cnt_196608_127
                                           _00711_DS_
                                           	JBCLR	PFLAG,0
                                           	GOTO	_00577_DS_
                                           ;;genSkipc:3291: created from rifx:013B5EFC
                                           ;	.line	1293; "MC32F7361.c"	ir_level_cnt++;
                                           	INCR	_int_isr_ir_level_cnt_196608_127
                                           	JBCLR	PFLAG,2
                                           	INCR	(_int_isr_ir_level_cnt_196608_127 + 1)
                                           _00577_DS_
                                           ;	.line	1309; "MC32F7361.c"	if (IR_RECV_PIN)
                                           	JBSET	_IOP1bits,6
                                           	GOTO	_00606_DS_
                                           ;	.line	1311; "MC32F7361.c"	last_level_in_ir_pin = 1; // 
                                           	BSET	_flag1,1
                                           ;;swapping arguments (AOP_TYPEs 1/3)
                                           ;;unsigned compare: left >= lit(0x4B1=1201), size=2
                                           ;	.line	1314; "MC32F7361.c"	if (ir_level_cnt > 1200) // (120000us,120ms)
                                           	MOVAI	0x04
                                           	RSUBAR	(_int_isr_ir_level_cnt_196608_127 + 1)
                                           	JBSET	PFLAG,2
                                           	GOTO	_00712_DS_
                                           	MOVAI	0xb1
                                           	RSUBAR	_int_isr_ir_level_cnt_196608_127
                                           _00712_DS_
                                           	JBSET	PFLAG,0
                                           	GOTO	_00607_DS_
                                           ;;genSkipc:3291: created from rifx:013B5EFC
                                           ;	.line	1317; "MC32F7361.c"	if (__ir_data != 0) // (__ir_data)
                                           	MOVAI	0x00
                                           	ORAR	_int_isr___ir_data_196608_127
                                           	JBCLR	PFLAG,2
                                           	GOTO	_00581_DS_
                                           ;	.line	1326; "MC32F7361.c"	if (0 == flag_is_recved_data)
                                           	JBCLR	_flag1,0
                                           	GOTO	_00581_DS_
                                           ;	.line	1330; "MC32F7361.c"	ir_data = ~__ir_data;
                                           	COMAR	_int_isr___ir_data_196608_127
                                           	MOVRA	_ir_data
                                           ;	.line	1331; "MC32F7361.c"	__ir_data = 0;
                                           	CLRR	_int_isr___ir_data_196608_127
                                           ;	.line	1332; "MC32F7361.c"	flag_is_recved_data = 1;
                                           	BSET	_flag1,0
                                           _00581_DS_
                                           ;	.line	1337; "MC32F7361.c"	flag_is_recv_ir_repeat_code = 0; // 
                                           	BCLR	_flag1,2
                                           	GOTO	_00607_DS_
                                           _00606_DS_
                                           ;	.line	1342; "MC32F7361.c"	if (last_level_in_ir_pin)
                                           	JBSET	_flag1,1
                                           	GOTO	_00604_DS_
                                           ;;swapping arguments (AOP_TYPEs 1/3)
                                           ;;unsigned compare: left >= lit(0x9=9), size=2
                                           ;	.line	1345; "MC32F7361.c"	if (ir_level_cnt <= 8) // 800us
                                           	MOVAI	0x00
                                           	RSUBAR	(_int_isr_ir_level_cnt_196608_127 + 1)
                                           	JBSET	PFLAG,2
                                           	GOTO	_00713_DS_
                                           	MOVAI	0x09
                                           	RSUBAR	_int_isr_ir_level_cnt_196608_127
                                           _00713_DS_
                                           	JBCLR	PFLAG,0
                                           	GOTO	_00601_DS_
                                           ;;genSkipc:3291: created from rifx:013B5EFC
                                           ;	.line	1348; "MC32F7361.c"	flag_is_recv_ir_repeat_code = 0;
                                           	BCLR	_flag1,2
                                           	GOTO	_00602_DS_
                                           ;;swapping arguments (AOP_TYPEs 1/3)
                                           ;;unsigned compare: left >= lit(0x13=19), size=2
                                           _00601_DS_
                                           ;	.line	1350; "MC32F7361.c"	else if (ir_level_cnt <= 18) // 1800us,0
                                           	MOVAI	0x00
                                           	RSUBAR	(_int_isr_ir_level_cnt_196608_127 + 1)
                                           	JBSET	PFLAG,2
                                           	GOTO	_00714_DS_
                                           	MOVAI	0x13
                                           	RSUBAR	_int_isr_ir_level_cnt_196608_127
                                           _00714_DS_
                                           	JBCLR	PFLAG,0
                                           	GOTO	_00598_DS_
                                           ;;genSkipc:3291: created from rifx:013B5EFC
                                           ;	.line	1352; "MC32F7361.c"	__ir_data <<= 1;
                                           	MOVAR	_int_isr___ir_data_196608_127
                                           	MOVRA	r0x1043
                                           	BCLR	PFLAG,0
                                           	RLAR	r0x1043
                                           	MOVRA	_int_isr___ir_data_196608_127
                                           	GOTO	_00602_DS_
                                           ;;swapping arguments (AOP_TYPEs 1/3)
                                           ;;unsigned compare: left >= lit(0x1B=27), size=2
                                           _00598_DS_
                                           ;	.line	1357; "MC32F7361.c"	else if (ir_level_cnt <= 26) // 2600us,1
                                           	MOVAI	0x00
                                           	RSUBAR	(_int_isr_ir_level_cnt_196608_127 + 1)
                                           	JBSET	PFLAG,2
                                           	GOTO	_00715_DS_
                                           	MOVAI	0x1b
                                           	RSUBAR	_int_isr_ir_level_cnt_196608_127
                                           _00715_DS_
                                           	JBCLR	PFLAG,0
                                           	GOTO	_00595_DS_
                                           ;;genSkipc:3291: created from rifx:013B5EFC
                                           ;	.line	1359; "MC32F7361.c"	__ir_data <<= 1;
                                           	MOVAR	_int_isr___ir_data_196608_127
                                           	MOVRA	r0x1043
                                           	BCLR	PFLAG,0
                                           	RLAR	r0x1043
                                           	MOVRA	_int_isr___ir_data_196608_127
                                           ;	.line	1360; "MC32F7361.c"	__ir_data |= 0x01;
                                           	BSET	_int_isr___ir_data_196608_127,0
                                           	GOTO	_00602_DS_
                                           ;;swapping arguments (AOP_TYPEs 1/3)
                                           ;;unsigned compare: left >= lit(0x97=151), size=2
                                           _00595_DS_
                                           ;	.line	1364; "MC32F7361.c"	else if (ir_level_cnt <= 150) // 15000us,
                                           	MOVAI	0x00
                                           	RSUBAR	(_int_isr_ir_level_cnt_196608_127 + 1)
                                           	JBSET	PFLAG,2
                                           	GOTO	_00716_DS_
                                           	MOVAI	0x97
                                           	RSUBAR	_int_isr_ir_level_cnt_196608_127
                                           _00716_DS_
                                           	JBSET	PFLAG,0
                                           	GOTO	_00602_DS_
                                           ;;genSkipc:3291: created from rifx:013B5EFC
                                           ;;swapping arguments (AOP_TYPEs 1/3)
                                           ;;unsigned compare: left >= lit(0x1A5=421), size=2
                                           ;	.line	1369; "MC32F7361.c"	else if (ir_level_cnt <= 420) // 42ms,
                                           	MOVAI	0x01
                                           	RSUBAR	(_int_isr_ir_level_cnt_196608_127 + 1)
                                           	JBSET	PFLAG,2
                                           	GOTO	_00717_DS_
                                           	MOVAI	0xa5
                                           	RSUBAR	_int_isr_ir_level_cnt_196608_127
                                           _00717_DS_
                                           	JBCLR	PFLAG,0
                                           	GOTO	_00589_DS_
                                           ;;genSkipc:3291: created from rifx:013B5EFC
                                           ;	.line	1382; "MC32F7361.c"	if (0 == flag_is_recved_data) // /
                                           	JBCLR	_flag1,0
                                           	GOTO	_00602_DS_
                                           ;	.line	1386; "MC32F7361.c"	ir_data = ~__ir_data;
                                           	COMAR	_int_isr___ir_data_196608_127
                                           	MOVRA	_ir_data
                                           ;	.line	1387; "MC32F7361.c"	__ir_data = 0;
                                           	CLRR	_int_isr___ir_data_196608_127
                                           ;	.line	1388; "MC32F7361.c"	flag_is_recved_data = 1;
                                           	BSET	_flag1,0
                                           	GOTO	_00602_DS_
                                           ;;swapping arguments (AOP_TYPEs 1/3)
                                           ;;unsigned compare: left >= lit(0x4B1=1201), size=2
                                           _00589_DS_
                                           ;	.line	1395; "MC32F7361.c"	else if (ir_level_cnt <= 1200) // 120000,120ms,
                                           	MOVAI	0x04
                                           	RSUBAR	(_int_isr_ir_level_cnt_196608_127 + 1)
                                           	JBSET	PFLAG,2
                                           	GOTO	_00718_DS_
                                           	MOVAI	0xb1
                                           	RSUBAR	_int_isr_ir_level_cnt_196608_127
                                           _00718_DS_
                                           	JBCLR	PFLAG,0
                                           	GOTO	_00602_DS_
                                           ;;genSkipc:3291: created from rifx:013B5EFC
                                           ;	.line	1400; "MC32F7361.c"	flag_is_recv_ir_repeat_code = 1;
                                           	BSET	_flag1,2
                                           _00602_DS_
                                           ;	.line	1406; "MC32F7361.c"	ir_level_cnt = 0;
                                           	CLRR	_int_isr_ir_level_cnt_196608_127
                                           	CLRR	(_int_isr_ir_level_cnt_196608_127 + 1)
                                           _00604_DS_
                                           ;	.line	1409; "MC32F7361.c"	last_level_in_ir_pin = 0; // 
                                           	BCLR	_flag1,1
                                           _00607_DS_
                                           ;	.line	1418; "MC32F7361.c"	cnt++;
                                           	INCR	_int_isr_cnt_196608_143
                                           ;;swapping arguments (AOP_TYPEs 1/3)
                                           ;;unsigned compare: left >= lit(0x15=21), size=1
                                           ;	.line	1419; "MC32F7361.c"	if (cnt <= 20) // 20 * 100us
                                           	MOVAI	0x15
                                           	RSUBAR	_int_isr_cnt_196608_143
                                           	JBCLR	PFLAG,0
                                           	GOTO	_00619_DS_
                                           ;;genSkipc:3291: created from rifx:013B5EFC
                                           ;	.line	1421; "MC32F7361.c"	if (flag_is_led_1_enable)
                                           	JBSET	_flag2,0
                                           	GOTO	_00609_DS_
                                           ;	.line	1423; "MC32F7361.c"	LED_1_PIN = LED_ON_LEVEL;
                                           	BSET	_IOP1bits,7
                                           _00609_DS_
                                           ;	.line	1426; "MC32F7361.c"	if (flag_is_led_2_enable)
                                           	JBSET	_flag2,1
                                           	GOTO	_00611_DS_
                                           ;	.line	1428; "MC32F7361.c"	LED_2_PIN = LED_ON_LEVEL;
                                           	BSET	_IOP0bits,0
                                           _00611_DS_
                                           ;	.line	1431; "MC32F7361.c"	if (flag_is_led_3_enable)
                                           	JBSET	_flag2,2
                                           	GOTO	_00613_DS_
                                           ;	.line	1433; "MC32F7361.c"	LED_3_PIN = LED_ON_LEVEL;
                                           	BSET	_IOP0bits,1
                                           _00613_DS_
                                           ;	.line	1436; "MC32F7361.c"	if (flag_is_led_4_enable)
                                           	JBSET	_flag2,3
                                           	GOTO	_00615_DS_
                                           ;	.line	1438; "MC32F7361.c"	LED_4_PIN = LED_ON_LEVEL;
                                           	BSET	_IOP0bits,3
                                           _00615_DS_
                                           ;	.line	1441; "MC32F7361.c"	if (flag_is_led_5_enable)
                                           	JBSET	_flag2,4
                                           	GOTO	_00620_DS_
                                           ;	.line	1443; "MC32F7361.c"	LED_5_PIN = LED_ON_LEVEL;
                                           	BSET	_IOP0bits,4
                                           	GOTO	_00620_DS_
                                           _00619_DS_
                                           ;	.line	1448; "MC32F7361.c"	LED_1_PIN = LED_OFF_LEVEL;
                                           	BCLR	_IOP1bits,7
                                           ;	.line	1449; "MC32F7361.c"	LED_2_PIN = LED_OFF_LEVEL;
                                           	BCLR	_IOP0bits,0
                                           ;	.line	1450; "MC32F7361.c"	LED_3_PIN = LED_OFF_LEVEL;
                                           	BCLR	_IOP0bits,1
                                           ;	.line	1451; "MC32F7361.c"	LED_4_PIN = LED_OFF_LEVEL;
                                           	BCLR	_IOP0bits,3
                                           ;	.line	1452; "MC32F7361.c"	LED_5_PIN = LED_OFF_LEVEL;
                                           	BCLR	_IOP0bits,4
                                           ;;unsigned compare: left < lit(0x64=100), size=1
                                           _00620_DS_
                                           ;	.line	1455; "MC32F7361.c"	if (cnt >= 100) // 100 * 100us
                                           	MOVAI	0x64
                                           	RSUBAR	_int_isr_cnt_196608_143
                                           	JBSET	PFLAG,0
                                           	GOTO	_00622_DS_
                                           ;;genSkipc:3291: created from rifx:013B5EFC
                                           ;	.line	1457; "MC32F7361.c"	cnt = 0;
                                           	CLRR	_int_isr_cnt_196608_143
                                           _00622_DS_
                                           ;	.line	1464; "MC32F7361.c"	T1IF = 0; // 
                                           	BCLR	_INTFbits,1
                                           _00624_DS_
                                           ;	.line	1479; "MC32F7361.c"	__endasm;
                                           	;
                                           	swapar	_statusbuf;
                                           	movra	_PFLAG;
                                           	swapr	_abuf;
                                           	swapar	_abuf;
                                           	
                                           END_OF_INTERRUPT
                                           ;	.line	1480; "MC32F7361.c"	}
                                           	RETIE	
                                           
                                           ;--------------------------------------------------------
                                           ; code
                                           ;--------------------------------------------------------
                                           code_MC32F7361	code
                                           ;***
                                           ;  pBlock Stats: dbName = M
                                           ;***
                                           ;entry:  _main	;Function start
                                           ; 2 exit points
                                           ;has an exit
                                           ;functions called:
                                           ;   _sys_init
                                           ;   _charge_handle
                                           ;   _sys_init
                                           ;   _charge_handle
                                           ;; Starting pCode block
                                           _main	;Function start
                                           ; 2 exit points
                                           ;	.line	1259; "MC32F7361.c"	sys_init();
                                           	CALL	_sys_init
                                           _00571_DS_
                                           ;	.line	1265; "MC32F7361.c"	charge_handle();
                                           	CALL	_charge_handle
                                           	GOTO	_00571_DS_
                                           ;	.line	1267; "MC32F7361.c"	}
                                           	RETURN	
                                           ; exit point of _main
                                           
                                           ;***
                                           ;  pBlock Stats: dbName = C
                                           ;***
                                           ;entry:  _light_handle	;Function start
                                           ; 2 exit points
                                           ;has an exit
                                           ;functions called:
                                           ;   __mulint
                                           ;   __mulint
                                           ;9 compiler assigned registers:
                                           ;   r0x1039
                                           ;   r0x103A
                                           ;   STK02
                                           ;   STK01
                                           ;   STK00
                                           ;   r0x103B
                                           ;   r0x103C
                                           ;   r0x103D
                                           ;   r0x103E
                                           ;; Starting pCode block
                                           _light_handle	;Function start
                                           ; 2 exit points
                                           ;	.line	1133; "MC32F7361.c"	if (cur_charge_phase != CUR_CHARGE_PHASE_NONE ||
                                           	MOVAI	0x00
                                           	ORAR	_cur_charge_phase
                                           	JBSET	PFLAG,2
                                           	GOTO	_00464_DS_
                                           ;	.line	1134; "MC32F7361.c"	cur_led_mode == CUR_LED_MODE_OFF) /*  */
                                           	MOVAI	0x00
                                           	ORAR	_cur_led_mode
                                           	JBSET	PFLAG,2
                                           	GOTO	_00465_DS_
                                           _00464_DS_
                                           ;	.line	1136; "MC32F7361.c"	return;
                                           	GOTO	_00502_DS_
                                           _00465_DS_
                                           ;	.line	1141; "MC32F7361.c"	if (1 == cur_discharge_rate) // 1M1
                                           	MOVAR	_cur_discharge_rate
                                           	XORAI	0x01
                                           	JBSET	PFLAG,2
                                           	GOTO	_00497_DS_
                                           ;	.line	1157; "MC32F7361.c"	if (light_adjust_time_cnt >= (1200 * light_ctl_phase_in_rate_1)) // 
                                           	MOVAR	_light_ctl_phase_in_rate_1
                                           	MOVRA	r0x1039
                                           	CLRR	r0x103A
                                           	MOVAR	r0x1039
                                           	MOVRA	STK02
                                           	MOVAI	0x00
                                           	MOVRA	STK01
                                           	MOVAI	0xb0
                                           	MOVRA	STK00
                                           	MOVAI	0x04
                                           	CALL	__mulint
                                           	MOVRA	r0x103C
                                           	MOVRA	r0x103A
                                           	MOVAR	STK00
                                           	MOVRA	r0x103B
                                           	MOVRA	r0x1039
                                           ;;120	MOVAR	r0x1039
                                           ;;121	MOVAR	r0x103A
                                           	MOVAI	0x00
                                           	JBCLR	r0x103C,7
                                           	MOVAI	0xff
                                           	MOVRA	r0x103D
                                           	MOVRA	r0x103E
                                           	MOVAR	r0x103D
                                           	RSUBAR	(_light_adjust_time_cnt + 3)
                                           	JBSET	PFLAG,2
                                           	GOTO	_00556_DS_
                                           	MOVAR	r0x103E
                                           	RSUBAR	(_light_adjust_time_cnt + 2)
                                           	JBSET	PFLAG,2
                                           	GOTO	_00556_DS_
                                           	MOVAR	r0x103C
                                           	RSUBAR	(_light_adjust_time_cnt + 1)
                                           	JBSET	PFLAG,2
                                           	GOTO	_00556_DS_
                                           	MOVAR	r0x103B
                                           	RSUBAR	_light_adjust_time_cnt
                                           _00556_DS_
                                           	JBSET	PFLAG,0
                                           	GOTO	_00499_DS_
                                           ;;genSkipc:3291: created from rifx:013B5EFC
                                           ;	.line	1159; "MC32F7361.c"	light_adjust_time_cnt = 0;
                                           	CLRR	_light_adjust_time_cnt
                                           	CLRR	(_light_adjust_time_cnt + 1)
                                           	CLRR	(_light_adjust_time_cnt + 2)
                                           	CLRR	(_light_adjust_time_cnt + 3)
                                           ;	.line	1161; "MC32F7361.c"	if (1 == light_ctl_phase_in_rate_1)
                                           	MOVAR	_light_ctl_phase_in_rate_1
                                           	XORAI	0x01
                                           	JBSET	PFLAG,2
                                           	GOTO	_00468_DS_
                                           ;	.line	1163; "MC32F7361.c"	light_ctl_phase_in_rate_1 = 3;
                                           	MOVAI	0x03
                                           	MOVRA	_light_ctl_phase_in_rate_1
                                           	GOTO	_00469_DS_
                                           _00468_DS_
                                           ;	.line	1167; "MC32F7361.c"	light_ctl_phase_in_rate_1 += 3;
                                           	MOVAR	_light_ctl_phase_in_rate_1
                                           	MOVRA	r0x1039
                                           	MOVAI	0x03
                                           	ADDAR	r0x1039
                                           	MOVRA	_light_ctl_phase_in_rate_1
                                           ;;unsigned compare: left < lit(0x25=37), size=2
                                           _00469_DS_
                                           ;	.line	1171; "MC32F7361.c"	if (cur_light_pwm_duty_val >= ((u32)LIGHT_TIMER_FEQ_VAL * 48 / 1000) + ((u32)LIGHT_TIMER_FEQ_VAL * 10 / 100))
                                           	MOVAI	0x00
                                           	RSUBAR	(_cur_light_pwm_duty_val + 1)
                                           	JBSET	PFLAG,2
                                           	GOTO	_00557_DS_
                                           	MOVAI	0x25
                                           	RSUBAR	_cur_light_pwm_duty_val
                                           _00557_DS_
                                           	JBSET	PFLAG,0
                                           	GOTO	_00471_DS_
                                           ;;genSkipc:3291: created from rifx:013B5EFC
                                           ;	.line	1174; "MC32F7361.c"	cur_light_pwm_duty_val -= (u32)LIGHT_TIMER_FEQ_VAL * 10 / 100;
                                           	MOVAI	0xe7
                                           	ADDRA	_cur_light_pwm_duty_val
                                           	JBSET	PFLAG,0
                                           	DECR	(_cur_light_pwm_duty_val + 1)
                                           	GOTO	_00499_DS_
                                           _00471_DS_
                                           ;	.line	1179; "MC32F7361.c"	cur_light_pwm_duty_val = (u32)LIGHT_TIMER_FEQ_VAL * 48 / 1000;
                                           	MOVAI	0x0c
                                           	MOVRA	_cur_light_pwm_duty_val
                                           	CLRR	(_cur_light_pwm_duty_val + 1)
                                           	GOTO	_00499_DS_
                                           ;;swapping arguments (AOP_TYPEs 1/3)
                                           ;;unsigned compare: left >= lit(0x78=120), size=2
                                           _00497_DS_
                                           ;	.line	1194; "MC32F7361.c"	if (cur_light_pwm_duty_val > (u32)LIGHT_TIMER_FEQ_VAL * 47 / 100)
                                           	MOVAI	0x00
                                           	RSUBAR	(_cur_light_pwm_duty_val + 1)
                                           	JBSET	PFLAG,2
                                           	GOTO	_00558_DS_
                                           	MOVAI	0x78
                                           	RSUBAR	_cur_light_pwm_duty_val
                                           _00558_DS_
                                           	JBSET	PFLAG,0
                                           	GOTO	_00494_DS_
                                           ;;genSkipc:3291: created from rifx:013B5EFC
                                           ;;unsigned compare: left < lit(0x28=40), size=4
                                           ;	.line	1196; "MC32F7361.c"	if (light_adjust_time_cnt >= 40)
                                           	MOVAI	0x00
                                           	RSUBAR	(_light_adjust_time_cnt + 3)
                                           	JBSET	PFLAG,2
                                           	GOTO	_00559_DS_
                                           	MOVAI	0x00
                                           	RSUBAR	(_light_adjust_time_cnt + 2)
                                           	JBSET	PFLAG,2
                                           	GOTO	_00559_DS_
                                           	MOVAI	0x00
                                           	RSUBAR	(_light_adjust_time_cnt + 1)
                                           	JBSET	PFLAG,2
                                           	GOTO	_00559_DS_
                                           	MOVAI	0x28
                                           	RSUBAR	_light_adjust_time_cnt
                                           _00559_DS_
                                           	JBSET	PFLAG,0
                                           	GOTO	_00499_DS_
                                           ;;genSkipc:3291: created from rifx:013B5EFC
                                           ;	.line	1198; "MC32F7361.c"	light_adjust_time_cnt = 0;
                                           	CLRR	_light_adjust_time_cnt
                                           	CLRR	(_light_adjust_time_cnt + 1)
                                           	CLRR	(_light_adjust_time_cnt + 2)
                                           	CLRR	(_light_adjust_time_cnt + 3)
                                           ;;unsigned compare: left < lit(0xD=13), size=2
                                           ;	.line	1200; "MC32F7361.c"	if (cur_light_pwm_duty_val >= ((u32)LIGHT_TIMER_FEQ_VAL * 48 / 1000) + ((u32)LIGHT_TIMER_FEQ_VAL * 6 / 1000))
                                           	MOVAI	0x00
                                           	RSUBAR	(_cur_light_pwm_duty_val + 1)
                                           	JBSET	PFLAG,2
                                           	GOTO	_00560_DS_
                                           	MOVAI	0x0d
                                           	RSUBAR	_cur_light_pwm_duty_val
                                           _00560_DS_
                                           	JBSET	PFLAG,0
                                           	GOTO	_00476_DS_
                                           ;;genSkipc:3291: created from rifx:013B5EFC
                                           ;	.line	1203; "MC32F7361.c"	cur_light_pwm_duty_val -= (u32)LIGHT_TIMER_FEQ_VAL * 6 / 1000;
                                           	MOVAI	0xff
                                           	ADDRA	_cur_light_pwm_duty_val
                                           	JBSET	PFLAG,0
                                           	DECR	(_cur_light_pwm_duty_val + 1)
                                           	GOTO	_00499_DS_
                                           _00476_DS_
                                           ;	.line	1208; "MC32F7361.c"	cur_light_pwm_duty_val = (u32)LIGHT_TIMER_FEQ_VAL * 48 / 1000;
                                           	MOVAI	0x0c
                                           	MOVRA	_cur_light_pwm_duty_val
                                           	CLRR	(_cur_light_pwm_duty_val + 1)
                                           	GOTO	_00499_DS_
                                           ;;swapping arguments (AOP_TYPEs 1/3)
                                           ;;unsigned compare: left >= lit(0x6B=107), size=2
                                           _00494_DS_
                                           ;	.line	1213; "MC32F7361.c"	else if (cur_light_pwm_duty_val > (u32)LIGHT_TIMER_FEQ_VAL * 42 / 100)
                                           	MOVAI	0x00
                                           	RSUBAR	(_cur_light_pwm_duty_val + 1)
                                           	JBSET	PFLAG,2
                                           	GOTO	_00561_DS_
                                           	MOVAI	0x6b
                                           	RSUBAR	_cur_light_pwm_duty_val
                                           _00561_DS_
                                           	JBSET	PFLAG,0
                                           	GOTO	_00491_DS_
                                           ;;genSkipc:3291: created from rifx:013B5EFC
                                           ;;unsigned compare: left < lit(0xF0=240), size=4
                                           ;	.line	1215; "MC32F7361.c"	if (light_adjust_time_cnt >= 240)
                                           	MOVAI	0x00
                                           	RSUBAR	(_light_adjust_time_cnt + 3)
                                           	JBSET	PFLAG,2
                                           	GOTO	_00562_DS_
                                           	MOVAI	0x00
                                           	RSUBAR	(_light_adjust_time_cnt + 2)
                                           	JBSET	PFLAG,2
                                           	GOTO	_00562_DS_
                                           	MOVAI	0x00
                                           	RSUBAR	(_light_adjust_time_cnt + 1)
                                           	JBSET	PFLAG,2
                                           	GOTO	_00562_DS_
                                           	MOVAI	0xf0
                                           	RSUBAR	_light_adjust_time_cnt
                                           _00562_DS_
                                           	JBSET	PFLAG,0
                                           	GOTO	_00499_DS_
                                           ;;genSkipc:3291: created from rifx:013B5EFC
                                           ;	.line	1217; "MC32F7361.c"	light_adjust_time_cnt = 0;
                                           	CLRR	_light_adjust_time_cnt
                                           	CLRR	(_light_adjust_time_cnt + 1)
                                           	CLRR	(_light_adjust_time_cnt + 2)
                                           	CLRR	(_light_adjust_time_cnt + 3)
                                           ;;unsigned compare: left < lit(0xD=13), size=2
                                           ;	.line	1219; "MC32F7361.c"	if (cur_light_pwm_duty_val >= ((u32)LIGHT_TIMER_FEQ_VAL * 48 / 1000) + ((u32)LIGHT_TIMER_FEQ_VAL * 6 / 1000))
                                           	MOVAI	0x00
                                           	RSUBAR	(_cur_light_pwm_duty_val + 1)
                                           	JBSET	PFLAG,2
                                           	GOTO	_00563_DS_
                                           	MOVAI	0x0d
                                           	RSUBAR	_cur_light_pwm_duty_val
                                           _00563_DS_
                                           	JBSET	PFLAG,0
                                           	GOTO	_00481_DS_
                                           ;;genSkipc:3291: created from rifx:013B5EFC
                                           ;	.line	1222; "MC32F7361.c"	cur_light_pwm_duty_val -= (u32)LIGHT_TIMER_FEQ_VAL * 6 / 1000;
                                           	MOVAI	0xff
                                           	ADDRA	_cur_light_pwm_duty_val
                                           	JBSET	PFLAG,0
                                           	DECR	(_cur_light_pwm_duty_val + 1)
                                           	GOTO	_00499_DS_
                                           _00481_DS_
                                           ;	.line	1227; "MC32F7361.c"	cur_light_pwm_duty_val = (u32)LIGHT_TIMER_FEQ_VAL * 48 / 1000;
                                           	MOVAI	0x0c
                                           	MOVRA	_cur_light_pwm_duty_val
                                           	CLRR	(_cur_light_pwm_duty_val + 1)
                                           	GOTO	_00499_DS_
                                           ;;unsigned compare: left < lit(0x1A4=420), size=4
                                           _00491_DS_
                                           ;	.line	1233; "MC32F7361.c"	if (light_adjust_time_cnt >= 420)
                                           	MOVAI	0x00
                                           	RSUBAR	(_light_adjust_time_cnt + 3)
                                           	JBSET	PFLAG,2
                                           	GOTO	_00564_DS_
                                           	MOVAI	0x00
                                           	RSUBAR	(_light_adjust_time_cnt + 2)
                                           	JBSET	PFLAG,2
                                           	GOTO	_00564_DS_
                                           	MOVAI	0x01
                                           	RSUBAR	(_light_adjust_time_cnt + 1)
                                           	JBSET	PFLAG,2
                                           	GOTO	_00564_DS_
                                           	MOVAI	0xa4
                                           	RSUBAR	_light_adjust_time_cnt
                                           _00564_DS_
                                           	JBSET	PFLAG,0
                                           	GOTO	_00499_DS_
                                           ;;genSkipc:3291: created from rifx:013B5EFC
                                           ;	.line	1235; "MC32F7361.c"	light_adjust_time_cnt = 0;
                                           	CLRR	_light_adjust_time_cnt
                                           	CLRR	(_light_adjust_time_cnt + 1)
                                           	CLRR	(_light_adjust_time_cnt + 2)
                                           	CLRR	(_light_adjust_time_cnt + 3)
                                           ;;unsigned compare: left < lit(0xD=13), size=2
                                           ;	.line	1237; "MC32F7361.c"	if (cur_light_pwm_duty_val >= ((u32)LIGHT_TIMER_FEQ_VAL * 48 / 1000) + ((u32)LIGHT_TIMER_FEQ_VAL * 6 / 1000))
                                           	MOVAI	0x00
                                           	RSUBAR	(_cur_light_pwm_duty_val + 1)
                                           	JBSET	PFLAG,2
                                           	GOTO	_00565_DS_
                                           	MOVAI	0x0d
                                           	RSUBAR	_cur_light_pwm_duty_val
                                           _00565_DS_
                                           	JBSET	PFLAG,0
                                           	GOTO	_00486_DS_
                                           ;;genSkipc:3291: created from rifx:013B5EFC
                                           ;	.line	1240; "MC32F7361.c"	cur_light_pwm_duty_val -= (u32)LIGHT_TIMER_FEQ_VAL * 6 / 1000;
                                           	MOVAI	0xff
                                           	ADDRA	_cur_light_pwm_duty_val
                                           	JBSET	PFLAG,0
                                           	DECR	(_cur_light_pwm_duty_val + 1)
                                           	GOTO	_00499_DS_
                                           _00486_DS_
                                           ;	.line	1245; "MC32F7361.c"	cur_light_pwm_duty_val = (u32)LIGHT_TIMER_FEQ_VAL * 48 / 1000;
                                           	MOVAI	0x0c
                                           	MOVRA	_cur_light_pwm_duty_val
                                           	CLRR	(_cur_light_pwm_duty_val + 1)
                                           _00499_DS_
                                           ;	.line	1251; "MC32F7361.c"	LIGHT_SET_PWM_DUTY(cur_light_pwm_duty_val);
                                           	MOVAR	_cur_light_pwm_duty_val
                                           	MOVRA	_T2DATA
                                           _00502_DS_
                                           ;	.line	1254; "MC32F7361.c"	}
                                           	RETURN	
                                           ; exit point of _light_handle
                                           
                                           ;***
                                           ;  pBlock Stats: dbName = C
                                           ;***
                                           ;entry:  _light_init	;Function start
                                           ; 2 exit points
                                           ;has an exit
                                           ;functions called:
                                           ;   __gptrget2
                                           ;   _light_blink
                                           ;   __gptrget2
                                           ;   _light_blink
                                           ;6 compiler assigned registers:
                                           ;   r0x103F
                                           ;   r0x1040
                                           ;   r0x1041
                                           ;   r0x1042
                                           ;   STK01
                                           ;   STK00
                                           ;; Starting pCode block
                                           _light_init	;Function start
                                           ; 2 exit points
                                           ;	.line	1113; "MC32F7361.c"	cur_light_pwm_duty_val = light_pwm_duty_init_val_table[cur_initial_discharge_gear - 1];
                                           	MOVAR	_cur_initial_discharge_gear
                                           	MOVRA	r0x103F
                                           	DECR	r0x103F
                                           	BCLR	PFLAG,0
                                           	RLAR	r0x103F
                                           	MOVRA	r0x103F
                                           	MOVRA	r0x1040
                                           ;;119	MOVAR	r0x1040
                                           	CLRR	r0x1041
                                           	JBCLR	r0x103F,7
                                           	DECR	r0x1041
                                           	MOVAR	r0x103F
                                           	ADDAI	(_light_pwm_duty_init_val_table + 0)
                                           	MOVRA	r0x1040
                                           	MOVAI	high (_light_pwm_duty_init_val_table + 0)
                                           	MOVRA	r0x1042
                                           	MOVAR	r0x1041
                                           	JBCLR	PFLAG,0
                                           	JZAR	r0x1041
                                           	ADDRA	r0x1042
                                           	MOVAR	r0x1040
                                           	MOVRA	STK01
                                           	MOVAR	r0x1042
                                           	MOVRA	STK00
                                           	MOVAI	0x80
                                           	CALL	__gptrget2
                                           	MOVRA	(_cur_light_pwm_duty_val + 1)
                                           	MOVAR	STK00
                                           	MOVRA	_cur_light_pwm_duty_val
                                           ;	.line	1115; "MC32F7361.c"	LIGHT_SET_PWM_DUTY(cur_light_pwm_duty_val); // PWM
                                           	MOVAR	_cur_light_pwm_duty_val
                                           	MOVRA	_T2DATA
                                           ;	.line	1116; "MC32F7361.c"	LIGHT_ON();                                 // PWM
                                           	MOVAI	0xc0
                                           	ORRA	_T2CR
                                           ;	.line	1117; "MC32F7361.c"	light_blink(3);                             // 
                                           	MOVAI	0x03
                                           	CALL	_light_blink
                                           ;	.line	1118; "MC32F7361.c"	light_adjust_time_cnt = 0;                  // 
                                           	CLRR	_light_adjust_time_cnt
                                           	CLRR	(_light_adjust_time_cnt + 1)
                                           	CLRR	(_light_adjust_time_cnt + 2)
                                           	CLRR	(_light_adjust_time_cnt + 3)
                                           ;	.line	1119; "MC32F7361.c"	}
                                           	RETURN	
                                           ; exit point of _light_init
                                           
                                           ;***
                                           ;  pBlock Stats: dbName = C
                                           ;***
                                           ;entry:  _light_blink	;Function start
                                           ; 2 exit points
                                           ;has an exit
                                           ;; Starting pCode block
                                           _light_blink	;Function start
                                           ; 2 exit points
                                           ;	.line	1103; "MC32F7361.c"	void light_blink(u8 blink_cnt)
                                           	MOVRA	_light_ctl_blink_times
                                           ;	.line	1106; "MC32F7361.c"	flag_is_ctl_light_blink = 1; // 
                                           	MOVAI	0x01
                                           	MOVRA	_flag_is_ctl_light_blink
                                           ;	.line	1107; "MC32F7361.c"	}
                                           	RETURN	
                                           ; exit point of _light_blink
                                           
                                           ;***
                                           ;  pBlock Stats: dbName = C
                                           ;***
                                           ;entry:  _charge_handle	;Function start
                                           ; 2 exit points
                                           ;has an exit
                                           ;functions called:
                                           ;   _adc_update_charge_adc_val
                                           ;   _adc_update_charge_adc_val
                                           ;   _timer0_pwm_disable
                                           ;   _adc_update_bat_adc_val
                                           ;   _timer0_pwm_set_low_feq
                                           ;   _timer0_pwm_disable
                                           ;   _timer0_pwm_set_high_feq
                                           ;   _adc_update_bat_adc_val
                                           ;   _adc_update_current_adc_val
                                           ;   __mullong
                                           ;   __divulong
                                           ;   __mullong
                                           ;   __mullong
                                           ;   __divulong
                                           ;   __mulint
                                           ;   __divuint
                                           ;   _adc_update_charge_adc_val
                                           ;   _adc_update_charge_adc_val
                                           ;   _timer0_pwm_disable
                                           ;   _adc_update_bat_adc_val
                                           ;   _timer0_pwm_set_low_feq
                                           ;   _timer0_pwm_disable
                                           ;   _timer0_pwm_set_high_feq
                                           ;   _adc_update_bat_adc_val
                                           ;   _adc_update_current_adc_val
                                           ;   __mullong
                                           ;   __divulong
                                           ;   __mullong
                                           ;   __mullong
                                           ;   __divulong
                                           ;   __mulint
                                           ;   __divuint
                                           ;19 compiler assigned registers:
                                           ;   r0x102D
                                           ;   r0x102E
                                           ;   r0x102F
                                           ;   r0x1030
                                           ;   r0x1031
                                           ;   r0x1032
                                           ;   STK06
                                           ;   STK05
                                           ;   STK04
                                           ;   STK03
                                           ;   STK02
                                           ;   STK01
                                           ;   STK00
                                           ;   r0x1033
                                           ;   r0x1034
                                           ;   r0x1035
                                           ;   r0x1036
                                           ;   r0x1037
                                           ;   r0x1038
                                           ;; Starting pCode block
                                           _charge_handle	;Function start
                                           ; 2 exit points
                                           ;	.line	482; "MC32F7361.c"	if (flag_is_charging_adjust_time_come) // 
                                           	JBSET	_flag1,3
                                           	GOTO	_00313_DS_
                                           ;	.line	496; "MC32F7361.c"	flag_is_charging_adjust_time_come = 0; // 
                                           	BCLR	_flag1,3
                                           ;	.line	499; "MC32F7361.c"	if (CUR_CHARGE_PHASE_NONE == cur_charge_phase)
                                           	MOVAI	0x00
                                           	ORAR	_cur_charge_phase
                                           	JBSET	PFLAG,2
                                           	GOTO	_00261_DS_
                                           ;	.line	501; "MC32F7361.c"	adc_update_charge_adc_val(ADC_REF_2_0_VOL);
                                           	MOVAI	0x00
                                           	CALL	_adc_update_charge_adc_val
                                           ;;unsigned compare: left < lit(0x390=912), size=2
                                           ;	.line	504; "MC32F7361.c"	if (charging_adc_val >= (u16)((u32)4900 * 4096 / 11 / 2 / 1000))
                                           	MOVAI	0x03
                                           	RSUBAR	(_charging_adc_val + 1)
                                           	JBSET	PFLAG,2
                                           	GOTO	_00431_DS_
                                           	MOVAI	0x90
                                           	RSUBAR	_charging_adc_val
                                           _00431_DS_
                                           	JBSET	PFLAG,0
                                           	GOTO	_00251_DS_
                                           ;;genSkipc:3291: created from rifx:013B5EFC
                                           ;	.line	506; "MC32F7361.c"	cur_charge_phase = CUR_CHARGE_PHASE_TRICKLE_CHARGE; // 
                                           	MOVAI	0x01
                                           	MOVRA	_cur_charge_phase
                                           _00251_DS_
                                           ;	.line	510; "MC32F7361.c"	if (CUR_CHARGE_PHASE_NONE == cur_charge_phase)
                                           	MOVAI	0x00
                                           	ORAR	_cur_charge_phase
                                           	JBSET	PFLAG,2
                                           	GOTO	_00262_DS_
                                           ;	.line	512; "MC32F7361.c"	return;
                                           	GOTO	_00313_DS_
                                           _00261_DS_
                                           ;	.line	518; "MC32F7361.c"	adc_update_charge_adc_val(ADC_REF_3_0_VOL);
                                           	MOVAI	0x01
                                           	CALL	_adc_update_charge_adc_val
                                           ;;unsigned compare: left < lit(0xD93=3475), size=2
                                           ;	.line	522; "MC32F7361.c"	if (charging_adc_val >= (u16)((u32)28000 * 4096 / 11 / 3 / 1000)) //  xx V
                                           	MOVAI	0x0d
                                           	RSUBAR	(_charging_adc_val + 1)
                                           	JBSET	PFLAG,2
                                           	GOTO	_00432_DS_
                                           	MOVAI	0x93
                                           	RSUBAR	_charging_adc_val
                                           _00432_DS_
                                           	JBSET	PFLAG,0
                                           	GOTO	_00255_DS_
                                           ;;genSkipc:3291: created from rifx:013B5EFC
                                           ;	.line	527; "MC32F7361.c"	PWM_CTL_FOR_CHARGING_DUTY_REG = 0;
                                           	CLRR	_T0DATA
                                           ;	.line	528; "MC32F7361.c"	return;
                                           	GOTO	_00313_DS_
                                           ;;swapping arguments (AOP_TYPEs 1/3)
                                           ;;unsigned compare: left >= lit(0x1F1=497), size=2
                                           _00255_DS_
                                           ;	.line	532; "MC32F7361.c"	if (charging_adc_val <= (u16)((u32)4000 * 4096 / 11 / 3 / 1000))
                                           	MOVAI	0x01
                                           	RSUBAR	(_charging_adc_val + 1)
                                           	JBSET	PFLAG,2
                                           	GOTO	_00433_DS_
                                           	MOVAI	0xf1
                                           	RSUBAR	_charging_adc_val
                                           _00433_DS_
                                           	JBCLR	PFLAG,0
                                           	GOTO	_00257_DS_
                                           ;;genSkipc:3291: created from rifx:013B5EFC
                                           ;	.line	538; "MC32F7361.c"	PWM_CTL_FOR_CHARGING_DUTY_REG = 0;
                                           	CLRR	_T0DATA
                                           ;	.line	539; "MC32F7361.c"	PWM_CTL_FOR_CHARGING_DISABLE();
                                           	CALL	_timer0_pwm_disable
                                           ;	.line	541; "MC32F7361.c"	cur_charge_phase = CUR_CHARGE_PHASE_NONE;
                                           	CLRR	_cur_charge_phase
                                           ;	.line	542; "MC32F7361.c"	cur_charging_pwm_status = CUR_CHARGING_PWM_STATUS_NONE;
                                           	CLRR	_cur_charging_pwm_status
                                           ;	.line	543; "MC32F7361.c"	return;
                                           	GOTO	_00313_DS_
                                           _00257_DS_
                                           ;	.line	547; "MC32F7361.c"	if (CUR_CHARGE_PHASE_FULLY_CHARGE == cur_charge_phase)
                                           	MOVAR	_cur_charge_phase
                                           	XORAI	0x04
                                           	JBSET	PFLAG,2
                                           	GOTO	_00262_DS_
                                           ;	.line	549; "MC32F7361.c"	return;
                                           	GOTO	_00313_DS_
                                           _00262_DS_
                                           ;	.line	556; "MC32F7361.c"	adc_update_bat_adc_val();
                                           	CALL	_adc_update_bat_adc_val
                                           ;	.line	559; "MC32F7361.c"	if (CUR_CHARGE_PHASE_TRICKLE_CHARGE == cur_charge_phase)
                                           	MOVAR	_cur_charge_phase
                                           	XORAI	0x01
                                           	JBSET	PFLAG,2
                                           	GOTO	_00268_DS_
                                           ;;swapping arguments (AOP_TYPEs 1/3)
                                           ;;unsigned compare: left >= lit(0xACD=2765), size=2
                                           ;	.line	562; "MC32F7361.c"	if (bat_adc_val <= (u16)((u32)2700 * 4096 / 2 / 2 / 1000))
                                           	MOVAI	0x0a
                                           	RSUBAR	(_bat_adc_val + 1)
                                           	JBSET	PFLAG,2
                                           	GOTO	_00434_DS_
                                           	MOVAI	0xcd
                                           	RSUBAR	_bat_adc_val
                                           _00434_DS_
                                           	JBCLR	PFLAG,0
                                           	GOTO	_00266_DS_
                                           ;;genSkipc:3291: created from rifx:013B5EFC
                                           ;	.line	564; "MC32F7361.c"	if (CUR_CHARGING_PWM_STATUS_LOW_FEQ != cur_charging_pwm_status)
                                           	MOVAR	_cur_charging_pwm_status
                                           	XORAI	0x01
                                           	JBSET	PFLAG,2
                                           	GOTO	_00435_DS_
                                           	GOTO	_00264_DS_
                                           _00435_DS_
                                           ;	.line	566; "MC32F7361.c"	PWM_CTL_FOR_CHARGING_SET_LOW_FEQ(); // 20KHz
                                           	CALL	_timer0_pwm_set_low_feq
                                           ;	.line	567; "MC32F7361.c"	cur_charging_pwm_status = CUR_CHARGING_PWM_STATUS_LOW_FEQ;
                                           	MOVAI	0x01
                                           	MOVRA	_cur_charging_pwm_status
                                           _00264_DS_
                                           ;	.line	570; "MC32F7361.c"	return;
                                           	GOTO	_00313_DS_
                                           _00266_DS_
                                           ;	.line	574; "MC32F7361.c"	cur_charge_phase = CUR_CHARGE_PHASE_NORMAL_CHARGE;
                                           	MOVAI	0x02
                                           	MOVRA	_cur_charge_phase
                                           ;;unsigned compare: left < lit(0xE47=3655), size=2
                                           _00268_DS_
                                           ;	.line	581; "MC32F7361.c"	if ((bat_adc_val >= (u16)((u32)(3500 + 50 + 20) * 4096 / 2 / 2 / 1000)) && /* xxx  3.53V1.793V*/
                                           	MOVAI	0x0e
                                           	RSUBAR	(_bat_adc_val + 1)
                                           	JBSET	PFLAG,2
                                           	GOTO	_00436_DS_
                                           	MOVAI	0x47
                                           	RSUBAR	_bat_adc_val
                                           _00436_DS_
                                           	JBSET	PFLAG,0
                                           	GOTO	_00276_DS_
                                           ;;genSkipc:3291: created from rifx:013B5EFC
                                           ;	.line	582; "MC32F7361.c"	(CUR_CHARGE_PHASE_TRICKLE_CHARGE_WHEN_APPROACH_FULLY_CHARGE != cur_charge_phase))
                                           	MOVAR	_cur_charge_phase
                                           	XORAI	0x03
                                           	JBSET	PFLAG,2
                                           	GOTO	_00437_DS_
                                           	GOTO	_00276_DS_
                                           _00437_DS_
                                           ;	.line	584; "MC32F7361.c"	trickle_charge_cnt++;
                                           	INCR	_charge_handle_trickle_charge_cnt_131072_59
                                           ;;swapping arguments (AOP_TYPEs 1/3)
                                           ;;unsigned compare: left >= lit(0x6=6), size=1
                                           ;	.line	586; "MC32F7361.c"	if (pwm_duty > MIN_PWM_DUTY_IN_TRICKLE_CHARGE)
                                           	MOVAI	0x06
                                           	RSUBAR	_charge_handle_pwm_duty_131072_59
                                           	JBSET	PFLAG,0
                                           	GOTO	_00270_DS_
                                           ;;genSkipc:3291: created from rifx:013B5EFC
                                           ;	.line	589; "MC32F7361.c"	pwm_duty -= 2;
                                           	MOVAR	_charge_handle_pwm_duty_131072_59
                                           	MOVRA	r0x102D
                                           	MOVAI	0xfe
                                           	ADDAR	r0x102D
                                           	MOVRA	_charge_handle_pwm_duty_131072_59
                                           ;;unsigned compare: left < lit(0xA=10), size=1
                                           _00270_DS_
                                           ;	.line	593; "MC32F7361.c"	if (pwm_duty < 10)
                                           	MOVAI	0x0a
                                           	RSUBAR	_charge_handle_pwm_duty_131072_59
                                           	JBCLR	PFLAG,0
                                           	GOTO	_00272_DS_
                                           ;;genSkipc:3291: created from rifx:013B5EFC
                                           ;	.line	595; "MC32F7361.c"	trickle_charge_cnt++;
                                           	INCR	_charge_handle_trickle_charge_cnt_131072_59
                                           ;;unsigned compare: left < lit(0x64=100), size=1
                                           _00272_DS_
                                           ;	.line	598; "MC32F7361.c"	if (trickle_charge_cnt >= 100)
                                           	MOVAI	0x64
                                           	RSUBAR	_charge_handle_trickle_charge_cnt_131072_59
                                           	JBSET	PFLAG,0
                                           	GOTO	_00277_DS_
                                           ;;genSkipc:3291: created from rifx:013B5EFC
                                           ;	.line	600; "MC32F7361.c"	trickle_charge_cnt = 0;
                                           	CLRR	_charge_handle_trickle_charge_cnt_131072_59
                                           ;	.line	609; "MC32F7361.c"	PWM_CTL_FOR_CHARGING_DUTY_REG = (u8)((u16)MIN_PWM_DUTY_IN_TRICKLE_CHARGE * (u16)PWM_CTL_FOR_CHARGING_HIGH_FEQ_VAL / 100);
                                           	MOVAI	0x08
                                           	MOVRA	_T0DATA
                                           ;	.line	610; "MC32F7361.c"	cur_charge_phase = CUR_CHARGE_PHASE_TRICKLE_CHARGE_WHEN_APPROACH_FULLY_CHARGE;
                                           	MOVAI	0x03
                                           	MOVRA	_cur_charge_phase
                                           	GOTO	_00277_DS_
                                           _00276_DS_
                                           ;	.line	615; "MC32F7361.c"	trickle_charge_cnt = 0;
                                           	CLRR	_charge_handle_trickle_charge_cnt_131072_59
                                           _00277_DS_
                                           ;	.line	619; "MC32F7361.c"	if (CUR_CHARGE_PHASE_TRICKLE_CHARGE_WHEN_APPROACH_FULLY_CHARGE == cur_charge_phase)
                                           	MOVAR	_cur_charge_phase
                                           	XORAI	0x03
                                           	JBSET	PFLAG,2
                                           	GOTO	_00282_DS_
                                           ;;unsigned compare: left < lit(0xE99=3737), size=2
                                           ;	.line	621; "MC32F7361.c"	if (bat_adc_val >= (u16)((u32)(3600 + 50) * 4096 / 2 / 2 / 1000))
                                           	MOVAI	0x0e
                                           	RSUBAR	(_bat_adc_val + 1)
                                           	JBSET	PFLAG,2
                                           	GOTO	_00441_DS_
                                           	MOVAI	0x99
                                           	RSUBAR	_bat_adc_val
                                           _00441_DS_
                                           	JBSET	PFLAG,0
                                           	GOTO	_00280_DS_
                                           ;;genSkipc:3291: created from rifx:013B5EFC
                                           ;	.line	629; "MC32F7361.c"	PWM_CTL_FOR_CHARGING_DUTY_REG = 0;
                                           	CLRR	_T0DATA
                                           ;	.line	630; "MC32F7361.c"	PWM_CTL_FOR_CHARGING_DISABLE(); // PWM
                                           	CALL	_timer0_pwm_disable
                                           ;	.line	632; "MC32F7361.c"	cur_charge_phase = CUR_CHARGE_PHASE_FULLY_CHARGE; // 4.0V
                                           	MOVAI	0x04
                                           	MOVRA	_cur_charge_phase
                                           ;	.line	633; "MC32F7361.c"	cur_charging_pwm_status = CUR_CHARGING_PWM_STATUS_NONE;
                                           	CLRR	_cur_charging_pwm_status
                                           ;	.line	634; "MC32F7361.c"	return;
                                           	GOTO	_00313_DS_
                                           _00280_DS_
                                           ;	.line	637; "MC32F7361.c"	return;
                                           	GOTO	_00313_DS_
                                           _00282_DS_
                                           ;	.line	645; "MC32F7361.c"	if (CUR_CHARGE_PHASE_NORMAL_CHARGE != cur_charge_phase)
                                           	MOVAR	_cur_charge_phase
                                           	XORAI	0x02
                                           	JBSET	PFLAG,2
                                           	GOTO	_00442_DS_
                                           	GOTO	_00284_DS_
                                           _00442_DS_
                                           ;	.line	647; "MC32F7361.c"	return;
                                           	GOTO	_00313_DS_
                                           _00284_DS_
                                           ;	.line	651; "MC32F7361.c"	if (CUR_CHARGING_PWM_STATUS_HIGH_FRQ != cur_charging_pwm_status)
                                           	MOVAR	_cur_charging_pwm_status
                                           	XORAI	0x02
                                           	JBSET	PFLAG,2
                                           	GOTO	_00443_DS_
                                           	GOTO	_00286_DS_
                                           _00443_DS_
                                           ;	.line	659; "MC32F7361.c"	PWM_CTL_FOR_CHARGING_SET_HIGH_FEQ();
                                           	CALL	_timer0_pwm_set_high_feq
                                           ;	.line	660; "MC32F7361.c"	cur_charging_pwm_status = CUR_CHARGING_PWM_STATUS_HIGH_FRQ;
                                           	MOVAI	0x02
                                           	MOVRA	_cur_charging_pwm_status
                                           _00286_DS_
                                           ;	.line	663; "MC32F7361.c"	adc_update_bat_adc_val();
                                           	CALL	_adc_update_bat_adc_val
                                           ;;unsigned compare: left < lit(0xE33=3635), size=2
                                           ;	.line	668; "MC32F7361.c"	if (bat_adc_val >= (u16)((u32)(3500 + 50) * 4096 / 2 / 2 / 1000)) //
                                           	MOVAI	0x0e
                                           	RSUBAR	(_bat_adc_val + 1)
                                           	JBSET	PFLAG,2
                                           	GOTO	_00444_DS_
                                           	MOVAI	0x33
                                           	RSUBAR	_bat_adc_val
                                           _00444_DS_
                                           	JBSET	PFLAG,0
                                           	GOTO	_00291_DS_
                                           ;;genSkipc:3291: created from rifx:013B5EFC
                                           ;	.line	672; "MC32F7361.c"	expected_power = (u16)5000; // 1h0.01V~0.02V
                                           	MOVAI	0x88
                                           	MOVRA	r0x102D
                                           	MOVAI	0x13
                                           	MOVRA	r0x102E
                                           	GOTO	_00292_DS_
                                           ;;unsigned compare: left < lit(0xD99=3481), size=2
                                           _00291_DS_
                                           ;	.line	674; "MC32F7361.c"	else if (bat_adc_val >= (u16)((u32)(3400) * 4096 / 2 / 2 / 1000)) //
                                           	MOVAI	0x0d
                                           	RSUBAR	(_bat_adc_val + 1)
                                           	JBSET	PFLAG,2
                                           	GOTO	_00445_DS_
                                           	MOVAI	0x99
                                           	RSUBAR	_bat_adc_val
                                           _00445_DS_
                                           	JBSET	PFLAG,0
                                           	GOTO	_00288_DS_
                                           ;;genSkipc:3291: created from rifx:013B5EFC
                                           ;	.line	676; "MC32F7361.c"	expected_power = (u16)26500 / 2;
                                           	MOVAI	0xc2
                                           	MOVRA	r0x102D
                                           	MOVAI	0x33
                                           	MOVRA	r0x102E
                                           	GOTO	_00292_DS_
                                           _00288_DS_
                                           ;	.line	680; "MC32F7361.c"	expected_power = (u16)26500;
                                           	MOVAI	0x84
                                           	MOVRA	r0x102D
                                           	MOVAI	0x67
                                           	MOVRA	r0x102E
                                           _00292_DS_
                                           ;	.line	683; "MC32F7361.c"	adc_update_current_adc_val();
                                           	CALL	_adc_update_current_adc_val
                                           ;	.line	699; "MC32F7361.c"	current = (u16)((u32)current_adc_val * 3 * 1000 * (1000 / 5) / 4096 / 76); // mA
                                           	MOVAR	_current_adc_val
                                           	MOVRA	r0x102F
                                           	MOVAR	(_current_adc_val + 1)
                                           	MOVRA	r0x1030
                                           	CLRR	r0x1031
                                           	CLRR	r0x1032
                                           	MOVAR	r0x102F
                                           	MOVRA	STK06
                                           	MOVAR	r0x1030
                                           	MOVRA	STK05
                                           	MOVAI	0x00
                                           	MOVRA	STK04
                                           	MOVAI	0x00
                                           	MOVRA	STK03
                                           	MOVAI	0xc0
                                           	MOVRA	STK02
                                           	MOVAI	0x27
                                           	MOVRA	STK01
                                           	MOVAI	0x00
                                           	MOVRA	STK00
                                           	MOVAI	0x00
                                           	CALL	__mullong
                                           	MOVRA	r0x1032
                                           	MOVAR	STK00
                                           	MOVRA	r0x1031
                                           	MOVAR	STK01
                                           	MOVRA	r0x1030
                                           	MOVAR	STK02
                                           	MOVRA	r0x102F
                                           	SWAPAR	r0x1030
                                           	ANDAI	0x0f
                                           	MOVRA	r0x1033
                                           	SWAPAR	r0x1031
                                           	MOVRA	r0x1034
                                           	ANDAI	0xf0
                                           	ORRA	r0x1033
                                           	XORRA	r0x1034
                                           	SWAPAR	r0x1032
                                           	MOVRA	r0x1035
                                           	ANDAI	0xf0
                                           	ORRA	r0x1034
                                           	XORRA	r0x1035
                                           	CLRR	r0x1036
                                           	MOVAI	0x4c
                                           	MOVRA	STK06
                                           	MOVAI	0x00
                                           	MOVRA	STK05
                                           	MOVAI	0x00
                                           	MOVRA	STK04
                                           	MOVAI	0x00
                                           	MOVRA	STK03
                                           	MOVAR	r0x1033
                                           	MOVRA	STK02
                                           	MOVAR	r0x1034
                                           	MOVRA	STK01
                                           	MOVAR	r0x1035
                                           	MOVRA	STK00
                                           	MOVAI	0x00
                                           	CALL	__divulong
                                           	MOVRA	r0x1032
                                           	MOVAR	STK00
                                           	MOVRA	r0x1031
                                           	MOVAR	STK01
                                           	MOVRA	r0x1034
                                           	MOVRA	r0x1030
                                           	MOVAR	STK02
                                           	MOVRA	r0x1033
                                           	MOVRA	r0x102F
                                           ;;122	MOVAR	r0x102F
                                           ;;123	MOVAR	r0x1030
                                           ;	.line	705; "MC32F7361.c"	voltage_of_bat = (u16)((u32)bat_adc_val * 2 * 1000 * 2 / 4096); // mV
                                           	MOVAR	_bat_adc_val
                                           	MOVRA	r0x102F
                                           	MOVAR	(_bat_adc_val + 1)
                                           	MOVRA	r0x1030
                                           	CLRR	r0x1031
                                           	CLRR	r0x1032
                                           	MOVAR	r0x102F
                                           	MOVRA	STK06
                                           	MOVAR	r0x1030
                                           	MOVRA	STK05
                                           	MOVAI	0x00
                                           	MOVRA	STK04
                                           	MOVAI	0x00
                                           	MOVRA	STK03
                                           	MOVAI	0xa0
                                           	MOVRA	STK02
                                           	MOVAI	0x0f
                                           	MOVRA	STK01
                                           	MOVAI	0x00
                                           	MOVRA	STK00
                                           	MOVAI	0x00
                                           	CALL	__mullong
                                           	MOVRA	r0x1032
                                           	MOVAR	STK00
                                           	MOVRA	r0x1031
                                           	MOVAR	STK01
                                           	MOVRA	r0x1030
                                           	MOVAR	STK02
                                           	MOVRA	r0x102F
                                           	SWAPAR	r0x1030
                                           	ANDAI	0x0f
                                           	MOVRA	r0x1035
                                           	SWAPAR	r0x1031
                                           	MOVRA	r0x1036
                                           	ANDAI	0xf0
                                           	ORRA	r0x1035
                                           	XORRA	r0x1036
                                           	SWAPAR	r0x1032
                                           	MOVRA	r0x1037
                                           	ANDAI	0xf0
                                           	ORRA	r0x1036
                                           	XORRA	r0x1037
                                           	CLRR	r0x1038
                                           	MOVAR	r0x1035
                                           	MOVRA	r0x102F
                                           	MOVAR	r0x1036
                                           	MOVRA	r0x1030
                                           ;;unsigned compare: left < lit(0xFFF=4095), size=2
                                           ;	.line	708; "MC32F7361.c"	if (current_adc_val >= 4095)
                                           	MOVAI	0x0f
                                           	RSUBAR	(_current_adc_val + 1)
                                           	JBSET	PFLAG,2
                                           	GOTO	_00446_DS_
                                           	MOVAI	0xff
                                           	RSUBAR	_current_adc_val
                                           _00446_DS_
                                           	JBSET	PFLAG,0
                                           	GOTO	_00309_DS_
                                           ;;genSkipc:3291: created from rifx:013B5EFC
                                           ;	.line	712; "MC32F7361.c"	if (pwm_duty > 0)
                                           	MOVAI	0x00
                                           	ORAR	_charge_handle_pwm_duty_131072_59
                                           	JBCLR	PFLAG,2
                                           	GOTO	_00310_DS_
                                           ;	.line	714; "MC32F7361.c"	pwm_duty--;
                                           	DECR	_charge_handle_pwm_duty_131072_59
                                           	GOTO	_00310_DS_
                                           _00309_DS_
                                           ;	.line	721; "MC32F7361.c"	if (expected_power != 26500)
                                           	MOVAR	r0x102D
                                           	XORAI	0x84
                                           	JBSET	PFLAG,2
                                           	GOTO	_00447_DS_
                                           	MOVAR	r0x102E
                                           	XORAI	0x67
                                           	JBSET	PFLAG,2
                                           	GOTO	_00447_DS_
                                           	GOTO	_00298_DS_
                                           ;;unsigned compare: left < lit(0x77C=1916), size=2
                                           _00447_DS_
                                           ;	.line	724; "MC32F7361.c"	if (current < 1916)
                                           	MOVAI	0x07
                                           	RSUBAR	r0x1034
                                           	JBSET	PFLAG,2
                                           	GOTO	_00448_DS_
                                           	MOVAI	0x7c
                                           	RSUBAR	r0x1033
                                           _00448_DS_
                                           	JBCLR	PFLAG,0
                                           	GOTO	_00298_DS_
                                           ;;genSkipc:3291: created from rifx:013B5EFC
                                           ;	.line	726; "MC32F7361.c"	current = 1;
                                           	MOVAI	0x01
                                           	MOVRA	r0x1033
                                           	CLRR	r0x1034
                                           _00298_DS_
                                           ;	.line	730; "MC32F7361.c"	power = (u32)voltage_of_bat * current / 1000; // 
                                           	MOVAR	r0x102F
                                           	MOVRA	r0x1031
                                           	MOVAR	r0x1030
                                           	MOVRA	r0x1032
                                           	CLRR	r0x1035
                                           	CLRR	r0x1036
                                           ;;116	MOVAR	r0x1033
                                           ;;118	MOVAR	r0x1034
                                           	CLRR	r0x1037
                                           	CLRR	r0x1038
                                           ;;115	MOVAR	r0x102F
                                           	MOVAR	r0x1033
                                           	MOVRA	r0x102F
                                           	MOVRA	STK06
                                           ;;117	MOVAR	r0x1030
                                           	MOVAR	r0x1034
                                           	MOVRA	r0x1030
                                           	MOVRA	STK05
                                           	MOVAI	0x00
                                           	MOVRA	STK04
                                           	MOVAI	0x00
                                           	MOVRA	STK03
                                           	MOVAR	r0x1031
                                           	MOVRA	STK02
                                           	MOVAR	r0x1032
                                           	MOVRA	STK01
                                           	MOVAI	0x00
                                           	MOVRA	STK00
                                           	MOVAI	0x00
                                           	CALL	__mullong
                                           	MOVRA	r0x1032
                                           	MOVAR	STK00
                                           	MOVRA	r0x1031
                                           	MOVAR	STK01
                                           	MOVRA	r0x1030
                                           	MOVAR	STK02
                                           	MOVRA	r0x102F
                                           	MOVAI	0xe8
                                           	MOVRA	STK06
                                           	MOVAI	0x03
                                           	MOVRA	STK05
                                           	MOVAI	0x00
                                           	MOVRA	STK04
                                           	MOVAI	0x00
                                           	MOVRA	STK03
                                           	MOVAR	r0x102F
                                           	MOVRA	STK02
                                           	MOVAR	r0x1030
                                           	MOVRA	STK01
                                           	MOVAR	r0x1031
                                           	MOVRA	STK00
                                           	MOVAR	r0x1032
                                           	CALL	__divulong
                                           	MOVRA	r0x1032
                                           	MOVAR	STK00
                                           	MOVRA	r0x1031
                                           	MOVAR	STK01
                                           	MOVRA	r0x1030
                                           	MOVAR	STK02
                                           	MOVRA	r0x102F
                                           ;	.line	732; "MC32F7361.c"	if (power < expected_power) //   
                                           	MOVAR	r0x102D
                                           	MOVRA	r0x1033
                                           	MOVAR	r0x102E
                                           	MOVRA	r0x1034
                                           	CLRR	r0x1035
                                           	CLRR	r0x1036
                                           	MOVAI	0x00
                                           	RSUBAR	r0x1032
                                           	JBSET	PFLAG,2
                                           	GOTO	_00449_DS_
                                           	MOVAR	r0x1035
                                           	RSUBAR	r0x1031
                                           	JBSET	PFLAG,2
                                           	GOTO	_00449_DS_
                                           	MOVAR	r0x1034
                                           	RSUBAR	r0x1030
                                           	JBSET	PFLAG,2
                                           	GOTO	_00449_DS_
                                           	MOVAR	r0x1033
                                           	RSUBAR	r0x102F
                                           _00449_DS_
                                           	JBCLR	PFLAG,0
                                           	GOTO	_00306_DS_
                                           ;;genSkipc:3291: created from rifx:013B5EFC
                                           ;;unsigned compare: left < lit(0x64=100), size=1
                                           ;	.line	734; "MC32F7361.c"	if (pwm_duty < 100) // 100%
                                           	MOVAI	0x64
                                           	RSUBAR	_charge_handle_pwm_duty_131072_59
                                           	JBCLR	PFLAG,0
                                           	GOTO	_00310_DS_
                                           ;;genSkipc:3291: created from rifx:013B5EFC
                                           ;	.line	736; "MC32F7361.c"	pwm_duty++;
                                           	INCR	_charge_handle_pwm_duty_131072_59
                                           	GOTO	_00310_DS_
                                           _00306_DS_
                                           ;	.line	739; "MC32F7361.c"	else if (power > expected_power) //   
                                           	MOVAR	r0x1032
                                           	RSUBAR	r0x1036
                                           	JBSET	PFLAG,2
                                           	GOTO	_00451_DS_
                                           	MOVAR	r0x1031
                                           	RSUBAR	r0x1035
                                           	JBSET	PFLAG,2
                                           	GOTO	_00451_DS_
                                           	MOVAR	r0x1030
                                           	RSUBAR	r0x1034
                                           	JBSET	PFLAG,2
                                           	GOTO	_00451_DS_
                                           	MOVAR	r0x102F
                                           	RSUBAR	r0x1033
                                           _00451_DS_
                                           	JBCLR	PFLAG,0
                                           	GOTO	_00310_DS_
                                           ;;genSkipc:3291: created from rifx:013B5EFC
                                           ;;swapping arguments (AOP_TYPEs 1/3)
                                           ;;unsigned compare: left >= lit(0x9=9), size=1
                                           ;	.line	741; "MC32F7361.c"	if (pwm_duty > MIN_PWM_DUTY_IN_LOW_POWER) // 
                                           	MOVAI	0x09
                                           	RSUBAR	_charge_handle_pwm_duty_131072_59
                                           	JBSET	PFLAG,0
                                           	GOTO	_00310_DS_
                                           ;;genSkipc:3291: created from rifx:013B5EFC
                                           ;	.line	743; "MC32F7361.c"	pwm_duty--;
                                           	DECR	_charge_handle_pwm_duty_131072_59
                                           ;;114	MOVAR	_charge_handle_pwm_duty_131072_59
                                           _00310_DS_
                                           ;	.line	757; "MC32F7361.c"	PWM_CTL_FOR_CHARGING_DUTY_REG = (u8)((u16)PWM_CTL_FOR_CHARGING_HIGH_FEQ_VAL * pwm_duty / 100);
                                           	CLRR	r0x102E
                                           ;;113	MOVAR	r0x102D
                                           	MOVAR	_charge_handle_pwm_duty_131072_59
                                           	MOVRA	r0x102D
                                           	MOVRA	STK02
                                           	MOVAI	0x00
                                           	MOVRA	STK01
                                           	MOVAI	0xa4
                                           	MOVRA	STK00
                                           	MOVAI	0x00
                                           	CALL	__mulint
                                           	MOVRA	r0x102E
                                           	MOVAR	STK00
                                           	MOVRA	r0x102D
                                           	MOVAI	0x64
                                           	MOVRA	STK02
                                           	MOVAI	0x00
                                           	MOVRA	STK01
                                           	MOVAR	r0x102D
                                           	MOVRA	STK00
                                           	MOVAR	r0x102E
                                           	CALL	__divuint
                                           	MOVRA	r0x102E
                                           	MOVAR	STK00
                                           	MOVRA	r0x102D
                                           	MOVAR	r0x102D
                                           	MOVRA	_T0DATA
                                           _00313_DS_
                                           ;	.line	759; "MC32F7361.c"	}
                                           	RETURN	
                                           ; exit point of _charge_handle
                                           
                                           ;***
                                           ;  pBlock Stats: dbName = C
                                           ;***
                                           ;entry:  _sys_init	;Function start
                                           ; 2 exit points
                                           ;has an exit
                                           ;functions called:
                                           ;   _CLR_RAM
                                           ;   _IO_Init
                                           ;   _timer1_config
                                           ;   _timer2_pwm_config
                                           ;   _delay_ms
                                           ;   _CLR_RAM
                                           ;   _IO_Init
                                           ;   _timer1_config
                                           ;   _timer2_pwm_config
                                           ;   _delay_ms
                                           ;1 compiler assigned register :
                                           ;   STK00
                                           ;; Starting pCode block
                                           _sys_init	;Function start
                                           ; 2 exit points
                                           ;	.line	465; "MC32F7361.c"	GIE = 0;
                                           	BCLR	_MCRbits,7
                                           ;	.line	466; "MC32F7361.c"	CLR_RAM();
                                           	CALL	_CLR_RAM
                                           ;	.line	467; "MC32F7361.c"	IO_Init();
                                           	CALL	_IO_Init
                                           ;	.line	468; "MC32F7361.c"	PWM_CTL_FOR_CHARGING_CONFIG(); // pwm/
                                           	BSET	_PWMCR3,2
                                           ;	.line	469; "MC32F7361.c"	timer1_config();               // timer1 100us
                                           	CALL	_timer1_config
                                           ;	.line	471; "MC32F7361.c"	PWM_CTL_FOR_LIGHTS(); //   pwm
                                           	CALL	_timer2_pwm_config
                                           ;	.line	473; "MC32F7361.c"	delay_ms(1); // 
                                           	MOVAI	0x01
                                           	MOVRA	STK00
                                           	MOVAI	0x00
                                           	CALL	_delay_ms
                                           ;	.line	474; "MC32F7361.c"	GIE = 1;
                                           	BSET	_MCRbits,7
                                           ;	.line	475; "MC32F7361.c"	}
                                           	RETURN	
                                           ; exit point of _sys_init
                                           
                                           ;***
                                           ;  pBlock Stats: dbName = C
                                           ;***
                                           ;entry:  _adc_update_current_adc_val	;Function start
                                           ; 2 exit points
                                           ;has an exit
                                           ;functions called:
                                           ;   _adc_sel_ref_voltage
                                           ;   _adc_sel_pin
                                           ;   _adc_getval
                                           ;   _adc_sel_ref_voltage
                                           ;   _adc_sel_pin
                                           ;   _adc_getval
                                           ;1 compiler assigned register :
                                           ;   STK00
                                           ;; Starting pCode block
                                           _adc_update_current_adc_val	;Function start
                                           ; 2 exit points
                                           ;	.line	458; "MC32F7361.c"	adc_sel_ref_voltage(ADC_REF_3_0_VOL);
                                           	MOVAI	0x01
                                           	CALL	_adc_sel_ref_voltage
                                           ;	.line	459; "MC32F7361.c"	adc_sel_pin(ADC_PIN_DETECT_CURRENT);
                                           	MOVAI	0x03
                                           	CALL	_adc_sel_pin
                                           ;	.line	460; "MC32F7361.c"	current_adc_val = adc_getval();
                                           	CALL	_adc_getval
                                           	MOVRA	(_current_adc_val + 1)
                                           	MOVAR	STK00
                                           	MOVRA	_current_adc_val
                                           ;	.line	461; "MC32F7361.c"	}
                                           	RETURN	
                                           ; exit point of _adc_update_current_adc_val
                                           
                                           ;***
                                           ;  pBlock Stats: dbName = C
                                           ;***
                                           ;entry:  _adc_update_charge_adc_val	;Function start
                                           ; 2 exit points
                                           ;has an exit
                                           ;functions called:
                                           ;   _adc_sel_ref_voltage
                                           ;   _adc_sel_pin
                                           ;   _adc_getval
                                           ;   _adc_sel_ref_voltage
                                           ;   _adc_sel_pin
                                           ;   _adc_getval
                                           ;2 compiler assigned registers:
                                           ;   r0x102C
                                           ;   STK00
                                           ;; Starting pCode block
                                           _adc_update_charge_adc_val	;Function start
                                           ; 2 exit points
                                           ;	.line	445; "MC32F7361.c"	void adc_update_charge_adc_val(u8 adc_ref_voltage)
                                           	MOVRA	r0x102C
                                           ;	.line	447; "MC32F7361.c"	adc_sel_ref_voltage(adc_ref_voltage);
                                           	MOVAR	r0x102C
                                           	CALL	_adc_sel_ref_voltage
                                           ;	.line	448; "MC32F7361.c"	adc_sel_pin(ADC_PIN_DETECT_CHARGE);
                                           	MOVAI	0x01
                                           	CALL	_adc_sel_pin
                                           ;	.line	449; "MC32F7361.c"	charging_adc_val = adc_getval();
                                           	CALL	_adc_getval
                                           	MOVRA	(_charging_adc_val + 1)
                                           	MOVAR	STK00
                                           	MOVRA	_charging_adc_val
                                           ;	.line	450; "MC32F7361.c"	}
                                           	RETURN	
                                           ; exit point of _adc_update_charge_adc_val
                                           
                                           ;***
                                           ;  pBlock Stats: dbName = C
                                           ;***
                                           ;entry:  _adc_update_bat_adc_val	;Function start
                                           ; 2 exit points
                                           ;has an exit
                                           ;functions called:
                                           ;   _adc_sel_ref_voltage
                                           ;   _adc_sel_pin
                                           ;   _adc_getval
                                           ;   _adc_sel_ref_voltage
                                           ;   _adc_sel_pin
                                           ;   _adc_getval
                                           ;1 compiler assigned register :
                                           ;   STK00
                                           ;; Starting pCode block
                                           _adc_update_bat_adc_val	;Function start
                                           ; 2 exit points
                                           ;	.line	433; "MC32F7361.c"	adc_sel_ref_voltage(ADC_REF_2_0_VOL);
                                           	MOVAI	0x00
                                           	CALL	_adc_sel_ref_voltage
                                           ;	.line	434; "MC32F7361.c"	adc_sel_pin(ADC_PIN_DETECT_BATTERY);
                                           	MOVAI	0x02
                                           	CALL	_adc_sel_pin
                                           ;	.line	435; "MC32F7361.c"	bat_adc_val = adc_getval();
                                           	CALL	_adc_getval
                                           	MOVRA	(_bat_adc_val + 1)
                                           	MOVAR	STK00
                                           	MOVRA	_bat_adc_val
                                           ;	.line	436; "MC32F7361.c"	}
                                           	RETURN	
                                           ; exit point of _adc_update_bat_adc_val
                                           
                                           ;***
                                           ;  pBlock Stats: dbName = C
                                           ;***
                                           ;entry:  _adc_getval	;Function start
                                           ; 2 exit points
                                           ;has an exit
                                           ;16 compiler assigned registers:
                                           ;   r0x101D
                                           ;   r0x101E
                                           ;   r0x101F
                                           ;   r0x1020
                                           ;   r0x1021
                                           ;   r0x1022
                                           ;   r0x1023
                                           ;   r0x1024
                                           ;   r0x1025
                                           ;   r0x1026
                                           ;   r0x1027
                                           ;   r0x1028
                                           ;   r0x1029
                                           ;   r0x102A
                                           ;   r0x102B
                                           ;   STK00
                                           ;; Starting pCode block
                                           _adc_getval	;Function start
                                           ; 2 exit points
                                           ;	.line	400; "MC32F7361.c"	u32 adc_val_sum = 0;     // ad
                                           	CLRR	r0x101D
                                           	CLRR	r0x101E
                                           	CLRR	r0x101F
                                           	CLRR	r0x1020
                                           ;	.line	401; "MC32F7361.c"	u16 get_adcmax = 0;      // ad
                                           	CLRR	r0x1021
                                           	CLRR	r0x1022
                                           ;	.line	402; "MC32F7361.c"	u16 get_adcmin = 0xFFFF; // ad()
                                           	MOVAI	0xff
                                           	MOVRA	r0x1023
                                           	MOVRA	r0x1024
                                           ;	.line	404; "MC32F7361.c"	for (i = 0; i < 20; i++)
                                           	CLRR	r0x1025
                                           _00188_DS_
                                           ;	.line	406; "MC32F7361.c"	ADEOC = 0; // 0
                                           	BCLR	_ADCR0bits,1
                                           _00177_DS_
                                           ;	.line	407; "MC32F7361.c"	while (!ADEOC)
                                           	JBSET	_ADCR0bits,1
                                           	GOTO	_00177_DS_
                                           ;	.line	409; "MC32F7361.c"	adc_val_tmp = ADRH << 4 | (ADRL & 0x0F);
                                           	MOVAR	_ADRH
                                           	MOVRA	r0x1026
                                           	CLRR	r0x1027
                                           	SWAPAR	r0x1027
                                           	ANDAI	0xf0
                                           	MOVRA	r0x1028
                                           	SWAPAR	r0x1026
                                           	MOVRA	r0x1029
                                           	ANDAI	0x0f
                                           	ORRA	r0x1028
                                           	XORRA	r0x1029
                                           	MOVAR	_ADRL
                                           	MOVRA	r0x1026
                                           	CLRR	r0x1027
                                           	MOVAI	0x0f
                                           	ANDRA	r0x1026
                                           	CLRR	r0x1027
                                           	MOVAR	r0x1029
                                           	ORRA	r0x1026
                                           	MOVAR	r0x1028
                                           	ORRA	r0x1027
                                           ;;unsigned compare: left < lit(0x2=2), size=1
                                           ;	.line	411; "MC32F7361.c"	if (i < 2)
                                           	MOVAI	0x02
                                           	RSUBAR	r0x1025
                                           	JBSET	PFLAG,0
                                           	GOTO	_00186_DS_
                                           ;;genSkipc:3291: created from rifx:013B5EFC
                                           ;	.line	413; "MC32F7361.c"	if (adc_val_tmp > get_adcmax)
                                           	MOVAR	r0x1027
                                           	RSUBAR	r0x1022
                                           	JBSET	PFLAG,2
                                           	GOTO	_00228_DS_
                                           	MOVAR	r0x1026
                                           	RSUBAR	r0x1021
                                           _00228_DS_
                                           	JBCLR	PFLAG,0
                                           	GOTO	_00183_DS_
                                           ;;genSkipc:3291: created from rifx:013B5EFC
                                           ;	.line	414; "MC32F7361.c"	get_adcmax = adc_val_tmp; // 
                                           	MOVAR	r0x1026
                                           	MOVRA	r0x1021
                                           	MOVAR	r0x1027
                                           	MOVRA	r0x1022
                                           _00183_DS_
                                           ;	.line	415; "MC32F7361.c"	if (adc_val_tmp < get_adcmin)
                                           	MOVAR	r0x1024
                                           	RSUBAR	r0x1027
                                           	JBSET	PFLAG,2
                                           	GOTO	_00229_DS_
                                           	MOVAR	r0x1023
                                           	RSUBAR	r0x1026
                                           _00229_DS_
                                           	JBCLR	PFLAG,0
                                           	GOTO	_00185_DS_
                                           ;;genSkipc:3291: created from rifx:013B5EFC
                                           ;	.line	416; "MC32F7361.c"	get_adcmin = adc_val_tmp; // 
                                           	MOVAR	r0x1026
                                           	MOVRA	r0x1023
                                           	MOVAR	r0x1027
                                           	MOVRA	r0x1024
                                           ;;110	MOVAR	r0x1026
                                           ;;112	MOVAR	r0x1027
                                           _00185_DS_
                                           ;	.line	417; "MC32F7361.c"	adc_val_sum += adc_val_tmp;
                                           	CLRR	r0x102A
                                           	CLRR	r0x102B
                                           ;;109	MOVAR	r0x1029
                                           	MOVAR	r0x1026
                                           	MOVRA	r0x1029
                                           	ADDRA	r0x101D
                                           ;;111	MOVAR	r0x1028
                                           	MOVAR	r0x1027
                                           	MOVRA	r0x1028
                                           	JBCLR	PFLAG,0
                                           	JZAR	r0x1028
                                           	ADDRA	r0x101E
                                           	MOVAR	r0x102A
                                           	JBCLR	PFLAG,0
                                           	JZAR	r0x102A
                                           	ADDRA	r0x101F
                                           	MOVAR	r0x102B
                                           	JBCLR	PFLAG,0
                                           	JZAR	r0x102B
                                           	ADDRA	r0x1020
                                           _00186_DS_
                                           ;	.line	404; "MC32F7361.c"	for (i = 0; i < 20; i++)
                                           	INCR	r0x1025
                                           ;;unsigned compare: left < lit(0x14=20), size=1
                                           	MOVAI	0x14
                                           	RSUBAR	r0x1025
                                           	JBSET	PFLAG,0
                                           	GOTO	_00188_DS_
                                           ;;genSkipc:3291: created from rifx:013B5EFC
                                           ;;108	MOVAR	r0x1021
                                           ;	.line	420; "MC32F7361.c"	adc_val_sum -= get_adcmax;        // 
                                           	MOVAR	r0x1022
                                           	MOVRA	r0x1026
                                           	CLRR	r0x1027
                                           	CLRR	r0x1029
                                           ;;107	MOVAR	r0x1025
                                           	MOVAR	r0x1021
                                           	MOVRA	r0x1025
                                           	RSUBAR	r0x101D
                                           	MOVRA	r0x1021
                                           	MOVAR	r0x101E
                                           	MOVRA	r0x1022
                                           	MOVAR	r0x1026
                                           	JBSET	PFLAG,0
                                           	JZAR	r0x1026
                                           	RSUBRA	r0x1022
                                           	MOVAR	r0x101F
                                           	MOVRA	r0x1028
                                           	MOVAR	r0x1027
                                           	JBSET	PFLAG,0
                                           	JZAR	r0x1027
                                           	RSUBRA	r0x1028
                                           	MOVAR	r0x1029
                                           	JBSET	PFLAG,0
                                           	INCAR	r0x1029
                                           	RSUBAR	r0x1020
                                           	MOVRA	r0x102A
                                           ;;100	MOVAR	r0x1023
                                           ;;102	MOVAR	r0x1024
                                           ;	.line	421; "MC32F7361.c"	adc_val_sum -= get_adcmin;        // 
                                           	CLRR	r0x101F
                                           	CLRR	r0x1020
                                           ;;99	MOVAR	r0x101D
                                           	MOVAR	r0x1023
                                           	MOVRA	r0x101D
                                           	RSUBRA	r0x1021
                                           ;;101	MOVAR	r0x101E
                                           	MOVAR	r0x1024
                                           	MOVRA	r0x101E
                                           	JBSET	PFLAG,0
                                           	JZAR	r0x101E
                                           	RSUBRA	r0x1022
                                           	MOVAR	r0x101F
                                           	JBSET	PFLAG,0
                                           	JZAR	r0x101F
                                           	RSUBRA	r0x1028
                                           	MOVAR	r0x1020
                                           	JBSET	PFLAG,0
                                           	JZAR	r0x1020
                                           	RSUBRA	r0x102A
                                           ;	.line	422; "MC32F7361.c"	adc_val_tmp = (adc_val_sum >> 4); // 16
                                           	SWAPAR	r0x1021
                                           	ANDAI	0x0f
                                           	MOVRA	r0x101D
                                           	SWAPAR	r0x1022
                                           	MOVRA	r0x101E
                                           	ANDAI	0xf0
                                           	ORRA	r0x101D
                                           	XORRA	r0x101E
                                           	SWAPAR	r0x1028
                                           	MOVRA	r0x101F
                                           	ANDAI	0xf0
                                           	ORRA	r0x101E
                                           	XORRA	r0x101F
                                           	SWAPAR	r0x102A
                                           	MOVRA	r0x1020
                                           	ANDAI	0xf0
                                           	ORRA	r0x101F
                                           	XORRA	r0x1020
                                           ;;104	MOVAR	r0x101D
                                           ;;106	MOVAR	r0x101E
                                           ;;103	MOVAR	r0x1021
                                           ;	.line	424; "MC32F7361.c"	return adc_val_tmp;
                                           	MOVAR	r0x101D
                                           	MOVRA	r0x1021
                                           	MOVRA	STK00
                                           ;;105	MOVAR	r0x1022
                                           	MOVAR	r0x101E
                                           	MOVRA	r0x1022
                                           ;	.line	425; "MC32F7361.c"	}
                                           	RETURN	
                                           ; exit point of _adc_getval
                                           
                                           ;***
                                           ;  pBlock Stats: dbName = C
                                           ;***
                                           ;entry:  _adc_sel_pin	;Function start
                                           ; 2 exit points
                                           ;has an exit
                                           ;functions called:
                                           ;   _delay_ms
                                           ;   _delay_ms
                                           ;2 compiler assigned registers:
                                           ;   r0x1023
                                           ;   STK00
                                           ;; Starting pCode block
                                           _adc_sel_pin	;Function start
                                           ; 2 exit points
                                           ;	.line	366; "MC32F7361.c"	void adc_sel_pin(u8 adc_pin)
                                           	MOVRA	r0x1023
                                           ;	.line	368; "MC32F7361.c"	if (ADC_PIN_DETECT_CHARGE == adc_pin)
                                           	MOVAR	r0x1023
                                           	XORAI	0x01
                                           	JBSET	PFLAG,2
                                           	GOTO	_00171_DS_
                                           ;	.line	374; "MC32F7361.c"	(0x01 << 0);  /* ADC */
                                           	MOVAI	0x8b
                                           	MOVRA	_ADCR0
                                           	GOTO	_00172_DS_
                                           _00171_DS_
                                           ;	.line	376; "MC32F7361.c"	else if (ADC_PIN_DETECT_BATTERY == adc_pin)
                                           	MOVAR	r0x1023
                                           	XORAI	0x02
                                           	JBSET	PFLAG,2
                                           	GOTO	_00168_DS_
                                           ;	.line	382; "MC32F7361.c"	(0x01 << 0);  /* ADC */
                                           	MOVAI	0x4b
                                           	MOVRA	_ADCR0
                                           	GOTO	_00172_DS_
                                           _00168_DS_
                                           ;	.line	384; "MC32F7361.c"	else if (ADC_PIN_DETECT_CURRENT == adc_pin)
                                           	MOVAR	r0x1023
                                           	XORAI	0x03
                                           	JBSET	PFLAG,2
                                           	GOTO	_00172_DS_
                                           ;	.line	390; "MC32F7361.c"	(0x01 << 0);                /* ADC */
                                           	MOVAI	0x6b
                                           	MOVRA	_ADCR0
                                           _00172_DS_
                                           ;	.line	393; "MC32F7361.c"	delay_ms(1); // adc
                                           	MOVAI	0x01
                                           	MOVRA	STK00
                                           	MOVAI	0x00
                                           	CALL	_delay_ms
                                           ;	.line	394; "MC32F7361.c"	}
                                           	RETURN	
                                           ; exit point of _adc_sel_pin
                                           
                                           ;***
                                           ;  pBlock Stats: dbName = C
                                           ;***
                                           ;entry:  _adc_sel_ref_voltage	;Function start
                                           ; 2 exit points
                                           ;has an exit
                                           ;1 compiler assigned register :
                                           ;   r0x101D
                                           ;; Starting pCode block
                                           _adc_sel_ref_voltage	;Function start
                                           ; 2 exit points
                                           ;	.line	338; "MC32F7361.c"	void adc_sel_ref_voltage(u8 adc_ref_voltage)
                                           	MOVRA	r0x101D
                                           ;	.line	342; "MC32F7361.c"	if (ADC_REF_2_0_VOL == adc_ref_voltage)
                                           	MOVAI	0x00
                                           	ORAR	r0x101D
                                           	JBSET	PFLAG,2
                                           	GOTO	_00158_DS_
                                           ;	.line	346; "MC32F7361.c"	(0x01 << 5); /* 2:0 2.0V  */
                                           	MOVAI	0xe0
                                           	MOVRA	_ADCR1
                                           	GOTO	_00160_DS_
                                           _00158_DS_
                                           ;	.line	348; "MC32F7361.c"	else if (ADC_REF_3_0_VOL == adc_ref_voltage)
                                           	MOVAR	r0x101D
                                           	XORAI	0x01
                                           	JBSET	PFLAG,2
                                           	GOTO	_00160_DS_
                                           ;	.line	353; "MC32F7361.c"	(0x01 << 0); /* 2:0 == 0b 001 3.0V  */
                                           	MOVAI	0xe1
                                           	MOVRA	_ADCR1
                                           _00160_DS_
                                           ;	.line	358; "MC32F7361.c"	}
                                           	RETURN	
                                           ; exit point of _adc_sel_ref_voltage
                                           
                                           ;***
                                           ;  pBlock Stats: dbName = C
                                           ;***
                                           ;entry:  _adc_config	;Function start
                                           ; 2 exit points
                                           ;has an exit
                                           ;; Starting pCode block
                                           _adc_config	;Function start
                                           ; 2 exit points
                                           ;	.line	315; "MC32F7361.c"	P14OE = 0; // 
                                           	BCLR	_OEP1bits,4
                                           ;	.line	316; "MC32F7361.c"	P14DC = 1; // 
                                           	BSET	_P1ADCRbits,4
                                           ;	.line	319; "MC32F7361.c"	P05OE = 0; // 
                                           	BCLR	_OEP0bits,5
                                           ;	.line	320; "MC32F7361.c"	P05DC = 1; // 
                                           	BSET	_P0ADCRbits,5
                                           ;	.line	323; "MC32F7361.c"	P11OE = 0; // 
                                           	BCLR	_OEP1bits,1
                                           ;	.line	324; "MC32F7361.c"	P11DC = 1; // 
                                           	BSET	_P1ADCRbits,1
                                           ;	.line	326; "MC32F7361.c"	ADCR0 = 0x0B; // 12adc
                                           	MOVAI	0x0b
                                           	MOVRA	_ADCR0
                                           ;	.line	328; "MC32F7361.c"	ADCR2 = 0x0F; // 15  ADCLK
                                           	MOVAI	0x0f
                                           	MOVRA	_ADCR2
                                           ;	.line	329; "MC32F7361.c"	}
                                           	RETURN	
                                           ; exit point of _adc_config
                                           
                                           ;***
                                           ;  pBlock Stats: dbName = C
                                           ;***
                                           ;entry:  _timer2_pwm_set_feq	;Function start
                                           ; 2 exit points
                                           ;has an exit
                                           ;; Starting pCode block
                                           _timer2_pwm_set_feq	;Function start
                                           ; 2 exit points
                                           ;	.line	295; "MC32F7361.c"	PWMCR1 |= (0x01 << 4); // FTMR  FHOSC
                                           	BSET	_PWMCR1,4
                                           ;	.line	297; "MC32F7361.c"	T2CR = (0x01 << 7) | (0x01 << 6) | (0x01 << 3); // PWM, FTMR
                                           	MOVAI	0xc8
                                           	MOVRA	_T2CR
                                           ;	.line	298; "MC32F7361.c"	T2LOAD = 255 - 1;                               //
                                           	MOVAI	0xfe
                                           	MOVRA	_T2LOAD
                                           ;	.line	299; "MC32F7361.c"	T2DATA = 255 - 50;                              /*  NPWM PWM   PWM */
                                           	MOVAI	0xcd
                                           	MOVRA	_T2DATA
                                           ;	.line	300; "MC32F7361.c"	}
                                           	RETURN	
                                           ; exit point of _timer2_pwm_set_feq
                                           
                                           ;***
                                           ;  pBlock Stats: dbName = C
                                           ;***
                                           ;entry:  _timer2_pwm_config	;Function start
                                           ; 2 exit points
                                           ;has an exit
                                           ;; Starting pCode block
                                           _timer2_pwm_config	;Function start
                                           ; 2 exit points
                                           ;	.line	280; "MC32F7361.c"	T2CR = (0x01 << 2); // PWM,  CPU16 
                                           	MOVAI	0x04
                                           	MOVRA	_T2CR
                                           ;	.line	284; "MC32F7361.c"	T2LOAD = LIGHT_TIMER_FEQ_VAL; // 1.056KHz
                                           	MOVAI	0xfe
                                           	MOVRA	_T2LOAD
                                           ;	.line	290; "MC32F7361.c"	PWMCR3 |= (0x01 << 4); // NFPWM2
                                           	BSET	_PWMCR3,4
                                           ;	.line	291; "MC32F7361.c"	}
                                           	RETURN	
                                           ; exit point of _timer2_pwm_config
                                           
                                           ;***
                                           ;  pBlock Stats: dbName = C
                                           ;***
                                           ;entry:  _timer1_config	;Function start
                                           ; 2 exit points
                                           ;has an exit
                                           ;; Starting pCode block
                                           _timer1_config	;Function start
                                           ; 2 exit points
                                           ;	.line	268; "MC32F7361.c"	T1CR |= (0x01 << 7) | (0x01 << 1); // CPU, 4
                                           	MOVAI	0x82
                                           	ORRA	_T1CR
                                           ;	.line	269; "MC32F7361.c"	T1LOAD = 108 - 1;                  // 100us (sdk)
                                           	MOVAI	0x6b
                                           	MOVRA	_T1LOAD
                                           ;	.line	270; "MC32F7361.c"	T1IE = 1;
                                           	BSET	_INTEbits,1
                                           ;	.line	271; "MC32F7361.c"	}
                                           	RETURN	
                                           ; exit point of _timer1_config
                                           
                                           ;***
                                           ;  pBlock Stats: dbName = C
                                           ;***
                                           ;entry:  _timer0_pwm_disable	;Function start
                                           ; 2 exit points
                                           ;has an exit
                                           ;; Starting pCode block
                                           _timer0_pwm_disable	;Function start
                                           ; 2 exit points
                                           ;	.line	261; "MC32F7361.c"	T0CR &= ~((0x01 << 7) | (0x01 << 6)); // PWM
                                           	MOVAI	0x3f
                                           	ANDRA	_T0CR
                                           ;	.line	262; "MC32F7361.c"	P02D = 0;                             // 
                                           	BCLR	_IOP0bits,2
                                           ;	.line	263; "MC32F7361.c"	}
                                           	RETURN	
                                           ; exit point of _timer0_pwm_disable
                                           
                                           ;***
                                           ;  pBlock Stats: dbName = C
                                           ;***
                                           ;entry:  _timer0_pwm_set_high_feq	;Function start
                                           ; 2 exit points
                                           ;has an exit
                                           ;; Starting pCode block
                                           _timer0_pwm_set_high_feq	;Function start
                                           ; 2 exit points
                                           ;	.line	241; "MC32F7361.c"	PWMCR1 |= (0x01 << 4); // FTMR  FHOSC
                                           	BSET	_PWMCR1,4
                                           ;	.line	248; "MC32F7361.c"	T0CR = (0x01 << 7) | (0x01 << 6) | (0x01 << 3) | (0x01 << 0); // PWM, FTMR2
                                           	MOVAI	0xc9
                                           	MOVRA	_T0CR
                                           ;	.line	249; "MC32F7361.c"	T0LOAD = PWM_CTL_FOR_CHARGING_HIGH_FEQ_VAL;
                                           	MOVAI	0xa4
                                           	MOVRA	_T0LOAD
                                           ;	.line	250; "MC32F7361.c"	T0DATA = 0;
                                           	CLRR	_T0DATA
                                           ;	.line	251; "MC32F7361.c"	}
                                           	RETURN	
                                           ; exit point of _timer0_pwm_set_high_feq
                                           
                                           ;***
                                           ;  pBlock Stats: dbName = C
                                           ;***
                                           ;entry:  _timer0_pwm_set_low_feq	;Function start
                                           ; 2 exit points
                                           ;has an exit
                                           ;; Starting pCode block
                                           _timer0_pwm_set_low_feq	;Function start
                                           ; 2 exit points
                                           ;	.line	230; "MC32F7361.c"	T0CR = (0x01 << 7) | (0x01 << 6); // PWMCPU
                                           	MOVAI	0xc0
                                           	MOVRA	_T0CR
                                           ;	.line	231; "MC32F7361.c"	T0LOAD = 215 - 1;
                                           	MOVAI	0xd6
                                           	MOVRA	_T0LOAD
                                           ;	.line	232; "MC32F7361.c"	T0DATA = 39;
                                           	MOVAI	0x27
                                           	MOVRA	_T0DATA
                                           ;	.line	233; "MC32F7361.c"	}
                                           	RETURN	
                                           ; exit point of _timer0_pwm_set_low_feq
                                           
                                           ;***
                                           ;  pBlock Stats: dbName = C
                                           ;***
                                           ;entry:  _IO_Init	;Function start
                                           ; 2 exit points
                                           ;has an exit
                                           ;; Starting pCode block
                                           _IO_Init	;Function start
                                           ; 2 exit points
                                           ;	.line	202; "MC32F7361.c"	IOP0 = 0x00;   // io
                                           	CLRR	_IOP0
                                           ;	.line	203; "MC32F7361.c"	OEP0 = 0x3F;   // io 1:out  0:in
                                           	MOVAI	0x3f
                                           	MOVRA	_OEP0
                                           ;	.line	204; "MC32F7361.c"	PUP0 = 0x00;   // io   1:enable  0:disable
                                           	CLRR	_PUP0
                                           ;	.line	205; "MC32F7361.c"	PDP0 = 0x00;   // io   1:enable  0:disable
                                           	CLRR	_PDP0
                                           ;	.line	206; "MC32F7361.c"	P0ADCR = 0x00; // io  1:  0:io
                                           	CLRR	_P0ADCR
                                           ;	.line	208; "MC32F7361.c"	IOP1 = 0x00;   // io
                                           	CLRR	_IOP1
                                           ;	.line	209; "MC32F7361.c"	OEP1 = 0xFF;   // io 1:out  0:in
                                           	MOVAI	0xff
                                           	MOVRA	_OEP1
                                           ;	.line	210; "MC32F7361.c"	PUP1 = 0x00;   // io   1:enable  0:disable
                                           	CLRR	_PUP1
                                           ;	.line	211; "MC32F7361.c"	PDP1 = 0x00;   // io   1:enable  0:disable
                                           	CLRR	_PDP1
                                           ;	.line	212; "MC32F7361.c"	P1ADCR = 0x00; // io  1:  0:io
                                           	CLRR	_P1ADCR
                                           ;	.line	214; "MC32F7361.c"	IOP2 = 0x00; // io
                                           	CLRR	_IOP2
                                           ;	.line	215; "MC32F7361.c"	OEP2 = 0x0F; // io 1:out  0:in
                                           	MOVAI	0x0f
                                           	MOVRA	_OEP2
                                           ;	.line	216; "MC32F7361.c"	PUP2 = 0x00; // io   1:enable  0:disable
                                           	CLRR	_PUP2
                                           ;	.line	217; "MC32F7361.c"	PDP2 = 0x00; // io   1:enable  0:disablea
                                           	CLRR	_PDP2
                                           ;	.line	219; "MC32F7361.c"	PMOD = 0x00;  // P00P01P13 io
                                           	CLRR	_PMOD
                                           ;	.line	220; "MC32F7361.c"	DRVCR = 0x80; // 
                                           	MOVAI	0x80
                                           	MOVRA	_DRVCR
                                           ;	.line	221; "MC32F7361.c"	}
                                           	RETURN	
                                           ; exit point of _IO_Init
                                           
                                           ;***
                                           ;  pBlock Stats: dbName = C
                                           ;***
                                           ;entry:  _CLR_RAM	;Function start
                                           ; 2 exit points
                                           ;has an exit
                                           ;; Starting pCode block
                                           _CLR_RAM	;Function start
                                           ; 2 exit points
                                           ;	.line	185; "MC32F7361.c"	for (FSR0 = 0; FSR0 < 0xff; FSR0++)
                                           	CLRR	_FSR0
                                           ;;unsigned compare: left < lit(0xFF=255), size=1
                                           _00118_DS_
                                           	MOVAI	0xff
                                           	RSUBAR	_FSR0
                                           	JBCLR	PFLAG,0
                                           	GOTO	_00116_DS_
                                           ;;genSkipc:3291: created from rifx:013B5EFC
                                           ;	.line	187; "MC32F7361.c"	INDF0 = 0x00;
                                           	CLRR	_INDF0
                                           ;	.line	185; "MC32F7361.c"	for (FSR0 = 0; FSR0 < 0xff; FSR0++)
                                           	INCR	_FSR0
                                           	GOTO	_00118_DS_
                                           _00116_DS_
                                           ;	.line	190; "MC32F7361.c"	FSR0 = 0xFF;
                                           	MOVAI	0xff
                                           	MOVRA	_FSR0
                                           ;	.line	191; "MC32F7361.c"	INDF0 = 0x00;
                                           	CLRR	_INDF0
                                           ;	.line	192; "MC32F7361.c"	}
                                           	RETURN	
                                           ; exit point of _CLR_RAM
                                           
                                           ;***
                                           ;  pBlock Stats: dbName = C
                                           ;***
                                           ;entry:  _delay_ms	;Function start
                                           ; 2 exit points
                                           ;has an exit
                                           ;7 compiler assigned registers:
                                           ;   r0x101D
                                           ;   STK00
                                           ;   r0x101E
                                           ;   r0x101F
                                           ;   r0x1020
                                           ;   r0x1021
                                           ;   r0x1022
                                           ;; Starting pCode block
                                           _delay_ms	;Function start
                                           ; 2 exit points
                                           ;	.line	286; "user.h"	void delay_ms(u16 xms)
                                           	MOVRA	r0x101D
                                           	MOVAR	STK00
                                           	MOVRA	r0x101E
                                           _00108_DS_
                                           ;	.line	288; "user.h"	while (xms)
                                           	MOVAR	r0x101E
                                           	ORAR	r0x101D
                                           	JBCLR	PFLAG,2
                                           	GOTO	_00111_DS_
                                           ;	.line	292; "user.h"	while (i--)
                                           	MOVAI	0x21
                                           	MOVRA	r0x101F
                                           	MOVAI	0x01
                                           	MOVRA	r0x1020
                                           _00105_DS_
                                           	MOVAR	r0x101F
                                           	MOVRA	r0x1021
                                           	MOVAR	r0x1020
                                           	MOVRA	r0x1022
                                           	MOVAI	0xff
                                           	ADDRA	r0x101F
                                           	JBSET	PFLAG,0
                                           	DECR	r0x1020
                                           	MOVAR	r0x1021
                                           	ORAR	r0x1022
                                           	JBCLR	PFLAG,2
                                           	GOTO	_00107_DS_
                                           ;	.line	294; "user.h"	Nop();
                                           	nop	
                                           	GOTO	_00105_DS_
                                           _00107_DS_
                                           ;	.line	296; "user.h"	xms--; //  --while()
                                           	MOVAI	0xff
                                           	ADDRA	r0x101E
                                           	JBSET	PFLAG,0
                                           	DECR	r0x101D
                                           	GOTO	_00108_DS_
                                           _00111_DS_
                                           ;	.line	302; "user.h"	}
                                           	RETURN	
                                           ; exit point of _delay_ms
                                           
                                           
                                           ;	code size estimation:
                                           ;	 1222+    0 =  1222 instructions ( 2444 byte)
                                           
                                           	end


MEMORY USAGE MAP ('X' = Used,  '-' = Unused)

0000 : XXXXXXXXXXXXXXXX XXXXXXXXXXXXXXXX XXXXXXXXXXXXXXXX XXXXXXXXXXXXXXXX
0040 : XXXXXXXXXXXXXXXX XXXXXXXXXXXXXXXX XXXXXXXXXXXXXXXX XXXXXXXXXXXXXXXX
0080 : XXXXXXXXXXXXXXXX XXXXXXXXXXXXXXXX XXXXXXXXXXXXXXXX XXXXXXXXXXXXXXXX
00C0 : XXXXXXXXXXXXXXXX XXXXXXXXXXXXXXXX XXXXXXXXXXXXXXXX XXXXXXXXXXXXXXXX
0100 : XXXXXXXXXXXXXXXX XXXXXXXXXXXXXXXX XXXXXXXXXXXXXXXX XXXXXXXXXXXXXXXX
0140 : XXXXXXXXXXXXXXXX XXXXXXXXXXXXXXXX XXXXXXXXXXXXXXXX XXXXXXXXXXXXXXXX
0180 : XXXXXXXXXXXXXXXX XXXXXXXXXXXXXXXX XXXXXXXXXXXXXXXX XXXXXXXXXXXXXXXX
01C0 : XXXXXXXXXXXXXXXX XXXXXXXXXXXXXXXX XXXXXXXXXXXXXXXX XXXXXXXXXXXXXXXX
0200 : XXXXXXXXXXXXXXXX XXXXXXXXXXXXXXXX XXXXXXXXXXXXXXXX XXXXXXXXXXXXXXXX
0240 : XXXXXXXXXXXXXXXX XXXXXXXXXXXXXXXX XXXXXXXXXXXXXXXX XXXXXXXXXXXXXXXX
0280 : XXXXXXXXXXXXXXXX XXXXXXXXXXXXXXXX XXXXXXXXXXXXXXXX XXXXXXXXXXXXXXXX
02C0 : XXXXXXXXXXXXXXXX XXXXXXXXXXXXXXXX XXXXXXXXXXXXXXXX XXXXXXXXXXXXXXXX
0300 : XXXXXXXXXXXXXXXX XXXXXXXXXXXXXXXX XXXXXXXXXXXXXXXX XXXXXXXXXXXXXXXX
0340 : XXXXXXXXXXXXXXXX XXXXXXXXXXXXXXXX XXXXXXXXXXXXXXXX XXXXXXXXXXXXXXXX
0380 : XXXXXXXXXXXXXXXX XXXXXXXXXXXXXXXX XXXXXXXXXXXXXXXX XXXXXXXXXXXXXXXX
03C0 : XXXXXXXXXXXXXXXX XXXXXXXXXXXXXXXX XXXXXXXXXXXXXXXX XXXXXXXXXXXXXXXX
0400 : XXXXXXXXXXXXXXXX XXXXXXXXXXXXXXXX XXXXXXXXXXXXXXXX XXXXXXXXXXXXXXXX
0440 : XXXXXXXXXXXXXXXX XXXXXXXXXXXXXXXX XXXXXXXXXXXXXXXX XXXXXXXXXXXXXXXX
0480 : XXXXXXXXXXXXXXXX XXXXXXXXXXXXXXXX XXXXXXXXXXXXXXXX XXXXXXXXXXXXXXXX
04C0 : XXXXXXXXXXXXXXXX XXXXXXXXXXXXXXXX XXXXXXXXXXXXXXXX XXXXXXXXXXXXXXXX
0500 : XXXXXXXXXXXXXXXX XXXXXXXXXXXXXXXX XXXXXXXXXXXXXXXX XXXXXXXXXXXXXXXX
0540 : XXXXXXXXXXXXXXXX XXXXXXXXXXXXXXXX XXXXXXXXXXXXXXXX XXXXXXXXXXXXXXXX
0580 : XXXXXXXXXXXXXXXX XXXXXXXXXXXXXXXX XXXXXXXXXXXXXXXX XXXXXXXXXXXXXXXX
05C0 : XXXXXXXXXXXXXXXX XXXXXXXXXXXXXXXX XXXXXXXXXXXXXXXX XXXXXXXXXXXXXXXX
0600 : XXXXXXXXXXXXXXXX XXXXXXXXXXXXXXXX XXXXXXXXXXXXXXXX XXXXXXXXXXXXXXXX
0640 : XXXXXXXXXXXXXXXX XXXXXXXXXXXXXXXX XXXXXXXXXXXXXXXX XXXXXXXXXXXXXXXX
0680 : XXXXXXXXXXXXXXXX XXXXXXXXXXXXXXXX XXXXXXXXXXXXXXXX XXXXXXXXXXXXXXXX
06C0 : XXXXXXXXXXXXXXXX XXXXXXXXXXXXXXXX XXXXXXXXXXXXXXXX XXXXXXXXXXXXXXXX
0700 : XXXXXXXXXXXXXXXX XXXXXXXXXXXXXXXX XXXXXXXXXXXXXXXX XXXXXXXXXXXXXXXX
0740 : XXXXXXXXXXXXXXXX XXXXXXXXXXXXXXXX XXXXXXXXXXXXXXXX XXXXXXXXXXXXXXXX
0780 : XXXXXXXXXXXXXXXX XXXXXXXXXXXXXXXX XXXXXXXXXXXXXXXX XXXXXXXXXXXXXXXX
07C0 : XXXXXXXXXXXXXXXX XXXXXXXXXXXXXXXX XXXXXXXXXXXXXXXX XXXXXXXXXXXXXXXX
0800 : XXXXXXXXXXXXXXXX XXXXXXXXXXXXXXXX XXXXXXXXXXXXXXXX XXXXXXXXXXXXXXXX
0840 : XXXXXXXXXXXXXXXX XXXXXXXXXXXXXXXX XXXXXXXXXXXXXXXX XXXXXXXXXXXXXXXX
0880 : XXXXXXXXXXXXXXXX XXXXXXXXXXXXXXXX XXXXXXXXXXXXXXXX XXXXXXXXXXXXXXXX
08C0 : XXXXXXXXXXXXXXXX XXXXXXXXXXXXXXXX XXXXXXXXXXXXXXXX XXXXXXXXXXXXXXXX
0900 : XXXXXXXXXXXXXXXX XXXXXXXXXXXXXXXX XXXXXXXXXXXXXXXX XXXXXXXXXXXXXXXX
0940 : XXXXXXXXXXXXXXXX XXXXXXXXXXXXXXXX XXXXXXXXXXXXXXXX XXXXXXXXXXXXXXXX
0980 : XXXXXXXXXXXXXXXX XXXXXXXXXXXXXXXX XXXXXXXXXXXXXXXX XXXXXXXXXXXXXXXX
09C0 : XXXXXXXXXXXXXXXX XXXXXXXXXXXXXXXX XXXXXXXXXXXXXXXX XXXXXXXXXXXXXXXX
0A00 : XXXXXXXXXXXXXXXX XXXXXXXXXXXXXXXX XXXXXXXXXXXXXXXX XXXXXXXXXXXXXXXX
0A40 : XXXXXXXXXXXXXXXX XXXXXXXXXXXXXXXX XXXXXXXXXXXXXXXX XXXXXXXXXXXXXXXX
0A80 : XXXXXXXXXXXXXXXX XXXXXXXXXXXXXXXX XXXXXXXXXXXXXXXX XXXXXXXXXXXXXXXX
0AC0 : XXXXXXXXXXXXXXXX XXXXXXXXXXXXXXXX XXXXXXXXXXXXXXXX XXXXXXXXXXXXXXXX
0B00 : XXXXXXXXXXXXXXXX XXXXXXXXXXXXXXXX XXXXXXXXXXXXXXXX XXXXXXXXXXXXXXXX
0B40 : XXXXXXXXXXXXXXXX XXXXXXXXXXXXXXXX XXXXXXXXXXXXXXXX XXXXXXXXXXXXXXXX
0B80 : XXXXXXXXXXXXXXXX XXXXXXXXXXXXXXXX XXXXXXXXXXXXXXXX XXXXXXXXXXXXXXXX
0BC0 : XXXXXXXXXXXXXXXX XXXXXXXXXXXXXXXX XXXXXXXXXXXXXXXX XXXXXXXXXXXXXXXX
0C00 : XXXXXXXXXXXXXXXX XXXXXXXXXXXXXXXX XXXXXXXXXXXXXXXX XXXXXXXXXXXXXXXX
0C40 : XXXXXXXXXXXXXXXX XXXXXXXXXXXXXXXX XXXXXXXXXXXXXXXX XXXXXXXXXXXXXXXX
0C80 : XXXXXXXXXXXXXXXX XXXXXXXXXXXXXXXX XXXXXXXXXXXXXXXX XXXXXXXXXXXXXXXX
0CC0 : XXXXXXXXXXXXXXXX XXXXXXXXXXXXXXXX XXXXXXXXXXXXXXXX XXXXXXXXXXXXXXXX
0D00 : XXXXXXXXXXXXXXXX XXXXXXXXXXXXXXXX XXXXXXXXXXXXXXXX XXXXXXXXXXXXXXXX
0D40 : XXXXXXXXXXXXXXXX XXXXXXXXXXXXXXXX XXXXXXXXXXXXXXXX XXXXXXXXXXXXXXXX
0D80 : XXXXXXXXXXXXXXXX XXXXXXXXXXXXXXXX XXXXXXXXXXXXXXXX XXXXXXXXXXXXXXXX
0DC0 : XXXXXXXXXXXXXXXX XXXXXXXXXXXXXXXX XXXXXXXXXXXXXXXX XXXXXXXXXXXXXXXX
0E00 : XXXXXXXXXX------ ---------------- ---------------- ----------------

All other memory blocks unused.

Program Memory Words Used:  1797

